
atmega324.elf:     file format elf32-avr

Sections:
Idx Name          Size      VMA       LMA       File off  Algn
  0 .data         000000ca  00800100  00003d9e  00003e32  2**0
                  CONTENTS, ALLOC, LOAD, DATA
  1 .text         00003d9e  00000000  00000000  00000094  2**1
                  CONTENTS, ALLOC, LOAD, READONLY, CODE
  2 .bss          0000015d  008001ca  008001ca  00003efc  2**0
                  ALLOC
  3 .comment      0000005c  00000000  00000000  00003efc  2**0
                  CONTENTS, READONLY
  4 .note.gnu.avr.deviceinfo 00000040  00000000  00000000  00003f58  2**2
                  CONTENTS, READONLY
  5 .debug_aranges 000005e8  00000000  00000000  00003f98  2**3
                  CONTENTS, READONLY, DEBUGGING
  6 .debug_info   00007461  00000000  00000000  00004580  2**0
                  CONTENTS, READONLY, DEBUGGING
  7 .debug_abbrev 00001764  00000000  00000000  0000b9e1  2**0
                  CONTENTS, READONLY, DEBUGGING
  8 .debug_line   00003b32  00000000  00000000  0000d145  2**0
                  CONTENTS, READONLY, DEBUGGING
  9 .debug_frame  00000e6c  00000000  00000000  00010c78  2**2
                  CONTENTS, READONLY, DEBUGGING
 10 .debug_str    00000fdd  00000000  00000000  00011ae4  2**0
                  CONTENTS, READONLY, DEBUGGING
 11 .debug_loc    00005e09  00000000  00000000  00012ac1  2**0
                  CONTENTS, READONLY, DEBUGGING
 12 .debug_ranges 00000438  00000000  00000000  000188ca  2**0
                  CONTENTS, READONLY, DEBUGGING

Disassembly of section .text:

00000000 <__vectors>:
       0:	0c 94 b4 00 	jmp	0x168	; 0x168 <__ctors_end>
       4:	0c 94 d1 00 	jmp	0x1a2	; 0x1a2 <__bad_interrupt>
       8:	0c 94 d1 00 	jmp	0x1a2	; 0x1a2 <__bad_interrupt>
       c:	0c 94 d1 00 	jmp	0x1a2	; 0x1a2 <__bad_interrupt>
      10:	0c 94 d1 00 	jmp	0x1a2	; 0x1a2 <__bad_interrupt>
      14:	0c 94 d1 00 	jmp	0x1a2	; 0x1a2 <__bad_interrupt>
      18:	0c 94 d1 00 	jmp	0x1a2	; 0x1a2 <__bad_interrupt>
      1c:	0c 94 d1 00 	jmp	0x1a2	; 0x1a2 <__bad_interrupt>
      20:	0c 94 d1 00 	jmp	0x1a2	; 0x1a2 <__bad_interrupt>
      24:	0c 94 d1 00 	jmp	0x1a2	; 0x1a2 <__bad_interrupt>
      28:	0c 94 d1 00 	jmp	0x1a2	; 0x1a2 <__bad_interrupt>
      2c:	0c 94 d1 00 	jmp	0x1a2	; 0x1a2 <__bad_interrupt>
      30:	0c 94 d1 00 	jmp	0x1a2	; 0x1a2 <__bad_interrupt>
      34:	0c 94 d1 00 	jmp	0x1a2	; 0x1a2 <__bad_interrupt>
      38:	0c 94 d1 00 	jmp	0x1a2	; 0x1a2 <__bad_interrupt>
      3c:	0c 94 d1 00 	jmp	0x1a2	; 0x1a2 <__bad_interrupt>
      40:	0c 94 d1 00 	jmp	0x1a2	; 0x1a2 <__bad_interrupt>
      44:	0c 94 d1 00 	jmp	0x1a2	; 0x1a2 <__bad_interrupt>
      48:	0c 94 d1 00 	jmp	0x1a2	; 0x1a2 <__bad_interrupt>
      4c:	0c 94 d1 00 	jmp	0x1a2	; 0x1a2 <__bad_interrupt>
      50:	0c 94 66 12 	jmp	0x24cc	; 0x24cc <__vector_20>
      54:	0c 94 c8 12 	jmp	0x2590	; 0x2590 <__vector_21>
      58:	0c 94 d1 00 	jmp	0x1a2	; 0x1a2 <__bad_interrupt>
      5c:	0c 94 d1 00 	jmp	0x1a2	; 0x1a2 <__bad_interrupt>
      60:	0c 94 d3 00 	jmp	0x1a6	; 0x1a6 <__vector_24>
      64:	0c 94 d1 00 	jmp	0x1a2	; 0x1a2 <__bad_interrupt>
      68:	0c 94 d1 00 	jmp	0x1a2	; 0x1a2 <__bad_interrupt>
      6c:	0c 94 d1 00 	jmp	0x1a2	; 0x1a2 <__bad_interrupt>
      70:	0c 94 9d 12 	jmp	0x253a	; 0x253a <__vector_28>
      74:	0c 94 ff 12 	jmp	0x25fe	; 0x25fe <__vector_29>
      78:	0c 94 d1 00 	jmp	0x1a2	; 0x1a2 <__bad_interrupt>
      7c:	df 13       	cpse	r29, r31
      7e:	32 14       	cp	r3, r2
      80:	4c 14       	cp	r4, r12
      82:	89 14       	cp	r8, r9
      84:	c5 14       	cp	r12, r5
      86:	02 15       	cp	r16, r2
      88:	9a 15       	cp	r25, r10
      8a:	b5 15       	cp	r27, r5
      8c:	28 16       	cp	r2, r24
      8e:	43 16       	cp	r4, r19
      90:	86 16       	cp	r8, r22
      92:	92 16       	cp	r9, r18
      94:	9e 16       	cp	r9, r30
      96:	aa 16       	cp	r10, r26
      98:	b6 16       	cp	r11, r22
      9a:	d9 16       	cp	r13, r25
      9c:	d9 16       	cp	r13, r25
      9e:	d9 16       	cp	r13, r25
      a0:	d9 16       	cp	r13, r25
      a2:	d9 16       	cp	r13, r25
      a4:	d9 16       	cp	r13, r25
      a6:	d9 16       	cp	r13, r25
      a8:	d9 16       	cp	r13, r25
      aa:	d9 16       	cp	r13, r25
      ac:	d9 16       	cp	r13, r25
      ae:	d9 16       	cp	r13, r25
      b0:	d9 16       	cp	r13, r25
      b2:	d9 16       	cp	r13, r25
      b4:	d9 16       	cp	r13, r25
      b6:	d9 16       	cp	r13, r25
      b8:	d9 16       	cp	r13, r25
      ba:	d9 16       	cp	r13, r25
      bc:	d9 16       	cp	r13, r25
      be:	d9 16       	cp	r13, r25
      c0:	d9 16       	cp	r13, r25
      c2:	d9 16       	cp	r13, r25
      c4:	d9 16       	cp	r13, r25
      c6:	d9 16       	cp	r13, r25
      c8:	d9 16       	cp	r13, r25
      ca:	d9 16       	cp	r13, r25
      cc:	d9 16       	cp	r13, r25
      ce:	d9 16       	cp	r13, r25
      d0:	d9 16       	cp	r13, r25
      d2:	d9 16       	cp	r13, r25
      d4:	d9 16       	cp	r13, r25
      d6:	d9 16       	cp	r13, r25
      d8:	d9 16       	cp	r13, r25
      da:	d9 16       	cp	r13, r25
      dc:	d9 16       	cp	r13, r25
      de:	d9 16       	cp	r13, r25
      e0:	d9 16       	cp	r13, r25
      e2:	c2 16       	cp	r12, r18
      e4:	ce 16       	cp	r12, r30
      e6:	07 63       	ori	r16, 0x37	; 55
      e8:	42 36       	cpi	r20, 0x62	; 98
      ea:	b7 9b       	sbis	0x16, 7	; 22
      ec:	d8 a7       	std	Y+40, r29	; 0x28
      ee:	1a 39       	cpi	r17, 0x9A	; 154
      f0:	68 56       	subi	r22, 0x68	; 104
      f2:	18 ae       	std	Y+56, r1	; 0x38
      f4:	ba ab       	std	Y+50, r27	; 0x32
      f6:	55 8c       	ldd	r5, Z+29	; 0x1d
      f8:	1d 3c       	cpi	r17, 0xCD	; 205
      fa:	b7 cc       	rjmp	.-1682   	; 0xfffffa6a <__eeprom_end+0xff7efa6a>
      fc:	57 63       	ori	r21, 0x37	; 55
      fe:	bd 6d       	ori	r27, 0xDD	; 221
     100:	ed fd       	.word	0xfded	; ????
     102:	75 3e       	cpi	r23, 0xE5	; 229
     104:	f6 17       	cp	r31, r22
     106:	72 31       	cpi	r23, 0x12	; 18
     108:	bf 00       	.word	0x00bf	; ????
     10a:	00 00       	nop
     10c:	80 3f       	cpi	r24, 0xF0	; 240
     10e:	08 00       	.word	0x0008	; ????
     110:	00 00       	nop
     112:	be 92       	st	-X, r11
     114:	24 49       	sbci	r18, 0x94	; 148
     116:	12 3e       	cpi	r17, 0xE2	; 226
     118:	ab aa       	std	Y+51, r10	; 0x33
     11a:	aa 2a       	or	r10, r26
     11c:	be cd       	rjmp	.-1156   	; 0xfffffc9a <__eeprom_end+0xff7efc9a>
     11e:	cc cc       	rjmp	.-1640   	; 0xfffffab8 <__eeprom_end+0xff7efab8>
     120:	4c 3e       	cpi	r20, 0xEC	; 236
     122:	00 00       	nop
     124:	00 80       	ld	r0, Z
     126:	be ab       	std	Y+54, r27	; 0x36
     128:	aa aa       	std	Y+50, r10	; 0x32
     12a:	aa 3e       	cpi	r26, 0xEA	; 234
     12c:	00 00       	nop
     12e:	00 00       	nop
     130:	bf 00       	.word	0x00bf	; ????
     132:	00 00       	nop
     134:	80 3f       	cpi	r24, 0xF0	; 240
     136:	00 00       	nop
     138:	00 00       	nop
     13a:	00 08       	sbc	r0, r0
     13c:	41 78       	andi	r20, 0x81	; 129
     13e:	d3 bb       	out	0x13, r29	; 19
     140:	43 87       	std	Z+11, r20	; 0x0b
     142:	d1 13       	cpse	r29, r17
     144:	3d 19       	sub	r19, r13
     146:	0e 3c       	cpi	r16, 0xCE	; 206
     148:	c3 bd       	out	0x23, r28	; 35
     14a:	42 82       	std	Z+2, r4	; 0x02
     14c:	ad 2b       	or	r26, r29
     14e:	3e 68       	ori	r19, 0x8E	; 142
     150:	ec 82       	std	Y+4, r14	; 0x04
     152:	76 be       	out	0x36, r7	; 54
     154:	d9 8f       	std	Y+25, r29	; 0x19
     156:	e1 a9       	ldd	r30, Z+49	; 0x31
     158:	3e 4c       	sbci	r19, 0xCE	; 206
     15a:	80 ef       	ldi	r24, 0xF0	; 240
     15c:	ff be       	out	0x3f, r15	; 63
     15e:	01 c4       	rjmp	.+2050   	; 0x962 <__stack+0x63>
     160:	ff 7f       	andi	r31, 0xFF	; 255
     162:	3f 00       	.word	0x003f	; ????
     164:	00 00       	nop
	...

00000168 <__ctors_end>:
     168:	11 24       	eor	r1, r1
     16a:	1f be       	out	0x3f, r1	; 63
     16c:	cf ef       	ldi	r28, 0xFF	; 255
     16e:	d8 e0       	ldi	r29, 0x08	; 8
     170:	de bf       	out	0x3e, r29	; 62
     172:	cd bf       	out	0x3d, r28	; 61

00000174 <__do_copy_data>:
     174:	11 e0       	ldi	r17, 0x01	; 1
     176:	a0 e0       	ldi	r26, 0x00	; 0
     178:	b1 e0       	ldi	r27, 0x01	; 1
     17a:	ee e9       	ldi	r30, 0x9E	; 158
     17c:	fd e3       	ldi	r31, 0x3D	; 61
     17e:	02 c0       	rjmp	.+4      	; 0x184 <__do_copy_data+0x10>
     180:	05 90       	lpm	r0, Z+
     182:	0d 92       	st	X+, r0
     184:	aa 3c       	cpi	r26, 0xCA	; 202
     186:	b1 07       	cpc	r27, r17
     188:	d9 f7       	brne	.-10     	; 0x180 <__do_copy_data+0xc>

0000018a <__do_clear_bss>:
     18a:	23 e0       	ldi	r18, 0x03	; 3
     18c:	aa ec       	ldi	r26, 0xCA	; 202
     18e:	b1 e0       	ldi	r27, 0x01	; 1
     190:	01 c0       	rjmp	.+2      	; 0x194 <.do_clear_bss_start>

00000192 <.do_clear_bss_loop>:
     192:	1d 92       	st	X+, r1

00000194 <.do_clear_bss_start>:
     194:	a7 32       	cpi	r26, 0x27	; 39
     196:	b2 07       	cpc	r27, r18
     198:	e1 f7       	brne	.-8      	; 0x192 <.do_clear_bss_loop>
     19a:	0e 94 30 13 	call	0x2660	; 0x2660 <main>
     19e:	0c 94 cd 1e 	jmp	0x3d9a	; 0x3d9a <_exit>

000001a2 <__bad_interrupt>:
     1a2:	0c 94 00 00 	jmp	0	; 0x0 <__vectors>

000001a6 <__vector_24>:
ISR(ANALOG_INTERRUPT)
/*************************************************************************
Function: ANALOG interrupt
Purpose:  Read Analog Input
**************************************************************************/
{
     1a6:	1f 92       	push	r1
     1a8:	0f 92       	push	r0
     1aa:	0f b6       	in	r0, 0x3f	; 63
     1ac:	0f 92       	push	r0
     1ae:	11 24       	eor	r1, r1
     1b0:	2f 93       	push	r18
     1b2:	3f 93       	push	r19
     1b4:	8f 93       	push	r24
     1b6:	9f 93       	push	r25
     1b8:	af 93       	push	r26
     1ba:	bf 93       	push	r27
     1bc:	ef 93       	push	r30
     1be:	ff 93       	push	r31
	/******/
	adc_tmp=ADCL;
     1c0:	80 91 78 00 	lds	r24, 0x0078	; 0x800078 <__DATA_REGION_ORIGIN__+0x18>
     1c4:	90 e0       	ldi	r25, 0x00	; 0
     1c6:	90 93 de 02 	sts	0x02DE, r25	; 0x8002de <adc_tmp+0x1>
     1ca:	80 93 dd 02 	sts	0x02DD, r24	; 0x8002dd <adc_tmp>
	adc_tmp|=(ADCH<<8);
     1ce:	20 91 79 00 	lds	r18, 0x0079	; 0x800079 <__DATA_REGION_ORIGIN__+0x19>
     1d2:	80 91 dd 02 	lds	r24, 0x02DD	; 0x8002dd <adc_tmp>
     1d6:	90 91 de 02 	lds	r25, 0x02DE	; 0x8002de <adc_tmp+0x1>
     1da:	92 2b       	or	r25, r18
     1dc:	90 93 de 02 	sts	0x02DE, r25	; 0x8002de <adc_tmp+0x1>
     1e0:	80 93 dd 02 	sts	0x02DD, r24	; 0x8002dd <adc_tmp>
	if(adc_n_sample < (1<<ADC_NUMBER_SAMPLE)){
     1e4:	80 91 dc 02 	lds	r24, 0x02DC	; 0x8002dc <adc_n_sample>
     1e8:	84 30       	cpi	r24, 0x04	; 4
     1ea:	a0 f4       	brcc	.+40     	; 0x214 <__vector_24+0x6e>
		adc_n_sample++;
     1ec:	80 91 dc 02 	lds	r24, 0x02DC	; 0x8002dc <adc_n_sample>
     1f0:	8f 5f       	subi	r24, 0xFF	; 255
     1f2:	80 93 dc 02 	sts	0x02DC, r24	; 0x8002dc <adc_n_sample>
		adc_sample+=adc_tmp;
     1f6:	20 91 dd 02 	lds	r18, 0x02DD	; 0x8002dd <adc_tmp>
     1fa:	30 91 de 02 	lds	r19, 0x02DE	; 0x8002de <adc_tmp+0x1>
     1fe:	80 91 d8 02 	lds	r24, 0x02D8	; 0x8002d8 <adc_sample>
     202:	90 91 d9 02 	lds	r25, 0x02D9	; 0x8002d9 <adc_sample+0x1>
     206:	82 0f       	add	r24, r18
     208:	93 1f       	adc	r25, r19
     20a:	90 93 d9 02 	sts	0x02D9, r25	; 0x8002d9 <adc_sample+0x1>
     20e:	80 93 d8 02 	sts	0x02D8, r24	; 0x8002d8 <adc_sample>
     212:	45 c0       	rjmp	.+138    	; 0x29e <__vector_24+0xf8>
	}else{
		ADC_VALUE[ADC_SELECTOR]=adc_sample>>ADC_NUMBER_SAMPLE;
     214:	e0 91 d6 02 	lds	r30, 0x02D6	; 0x8002d6 <ADC_SELECTOR>
     218:	f0 91 d7 02 	lds	r31, 0x02D7	; 0x8002d7 <ADC_SELECTOR+0x1>
     21c:	80 91 d8 02 	lds	r24, 0x02D8	; 0x8002d8 <adc_sample>
     220:	90 91 d9 02 	lds	r25, 0x02D9	; 0x8002d9 <adc_sample+0x1>
     224:	95 95       	asr	r25
     226:	87 95       	ror	r24
     228:	95 95       	asr	r25
     22a:	87 95       	ror	r24
     22c:	ee 0f       	add	r30, r30
     22e:	ff 1f       	adc	r31, r31
     230:	e6 52       	subi	r30, 0x26	; 38
     232:	fe 4f       	sbci	r31, 0xFE	; 254
     234:	91 83       	std	Z+1, r25	; 0x01
     236:	80 83       	st	Z, r24
		adc_n_sample=adc_sample=0;
     238:	10 92 d9 02 	sts	0x02D9, r1	; 0x8002d9 <adc_sample+0x1>
     23c:	10 92 d8 02 	sts	0x02D8, r1	; 0x8002d8 <adc_sample>
     240:	10 92 dc 02 	sts	0x02DC, r1	; 0x8002dc <adc_n_sample>
		/******/
		if(ADC_SELECTOR < ADC_N_CHANNEL)
     244:	20 91 d6 02 	lds	r18, 0x02D6	; 0x8002d6 <ADC_SELECTOR>
     248:	30 91 d7 02 	lds	r19, 0x02D7	; 0x8002d7 <ADC_SELECTOR+0x1>
     24c:	80 91 da 02 	lds	r24, 0x02DA	; 0x8002da <ADC_N_CHANNEL>
     250:	90 91 db 02 	lds	r25, 0x02DB	; 0x8002db <ADC_N_CHANNEL+0x1>
     254:	28 17       	cp	r18, r24
     256:	39 07       	cpc	r19, r25
     258:	54 f4       	brge	.+20     	; 0x26e <__vector_24+0xc8>
			ADC_SELECTOR++;
     25a:	80 91 d6 02 	lds	r24, 0x02D6	; 0x8002d6 <ADC_SELECTOR>
     25e:	90 91 d7 02 	lds	r25, 0x02D7	; 0x8002d7 <ADC_SELECTOR+0x1>
     262:	01 96       	adiw	r24, 0x01	; 1
     264:	90 93 d7 02 	sts	0x02D7, r25	; 0x8002d7 <ADC_SELECTOR+0x1>
     268:	80 93 d6 02 	sts	0x02D6, r24	; 0x8002d6 <ADC_SELECTOR>
     26c:	04 c0       	rjmp	.+8      	; 0x276 <__vector_24+0xd0>
		else
			ADC_SELECTOR=0;
     26e:	10 92 d7 02 	sts	0x02D7, r1	; 0x8002d7 <ADC_SELECTOR+0x1>
     272:	10 92 d6 02 	sts	0x02D6, r1	; 0x8002d6 <ADC_SELECTOR>
		ADC_SELECT &= ~MUX_MASK;
     276:	ac e7       	ldi	r26, 0x7C	; 124
     278:	b0 e0       	ldi	r27, 0x00	; 0
     27a:	8c 91       	ld	r24, X
     27c:	80 7e       	andi	r24, 0xE0	; 224
     27e:	8c 93       	st	X, r24
		ADC_SELECT |= (ADC_CHANNEL_GAIN[ADC_SELECTOR] & MUX_MASK);
     280:	e0 91 d6 02 	lds	r30, 0x02D6	; 0x8002d6 <ADC_SELECTOR>
     284:	f0 91 d7 02 	lds	r31, 0x02D7	; 0x8002d7 <ADC_SELECTOR+0x1>
     288:	ee 0f       	add	r30, r30
     28a:	ff 1f       	adc	r31, r31
     28c:	e6 53       	subi	r30, 0x36	; 54
     28e:	fe 4f       	sbci	r31, 0xFE	; 254
     290:	80 81       	ld	r24, Z
     292:	91 81       	ldd	r25, Z+1	; 0x01
     294:	2c 91       	ld	r18, X
     296:	8f 71       	andi	r24, 0x1F	; 31
     298:	99 27       	eor	r25, r25
     29a:	82 2b       	or	r24, r18
     29c:	8c 93       	st	X, r24
	}
}
     29e:	ff 91       	pop	r31
     2a0:	ef 91       	pop	r30
     2a2:	bf 91       	pop	r27
     2a4:	af 91       	pop	r26
     2a6:	9f 91       	pop	r25
     2a8:	8f 91       	pop	r24
     2aa:	3f 91       	pop	r19
     2ac:	2f 91       	pop	r18
     2ae:	0f 90       	pop	r0
     2b0:	0f be       	out	0x3f, r0	; 63
     2b2:	0f 90       	pop	r0
     2b4:	1f 90       	pop	r1
     2b6:	18 95       	reti

000002b8 <EEPROMenable>:
/***File Variable***/

/***File Header***/

/***Procedure & Function***/
EEPROM EEPROMenable(void){
     2b8:	fc 01       	movw	r30, r24
	eprom.write_float = eeprom_write_float;
	eprom.update_float = eeprom_update_float;
	eprom.read_block = eeprom_read_block;
	eprom.write_block = eeprom_write_block;
	eprom.update_block = eeprom_update_block;
	return eprom;
     2ba:	8f e2       	ldi	r24, 0x2F	; 47
     2bc:	9e e1       	ldi	r25, 0x1E	; 30
     2be:	91 83       	std	Z+1, r25	; 0x01
     2c0:	80 83       	st	Z, r24
     2c2:	8b e7       	ldi	r24, 0x7B	; 123
     2c4:	9e e1       	ldi	r25, 0x1E	; 30
     2c6:	93 83       	std	Z+3, r25	; 0x03
     2c8:	82 83       	std	Z+2, r24	; 0x02
     2ca:	8d e4       	ldi	r24, 0x4D	; 77
     2cc:	9e e1       	ldi	r25, 0x1E	; 30
     2ce:	95 83       	std	Z+5, r25	; 0x05
     2d0:	84 83       	std	Z+4, r24	; 0x04
     2d2:	87 e3       	ldi	r24, 0x37	; 55
     2d4:	9e e1       	ldi	r25, 0x1E	; 30
     2d6:	97 83       	std	Z+7, r25	; 0x07
     2d8:	86 83       	std	Z+6, r24	; 0x06
     2da:	81 e9       	ldi	r24, 0x91	; 145
     2dc:	9e e1       	ldi	r25, 0x1E	; 30
     2de:	91 87       	std	Z+9, r25	; 0x09
     2e0:	80 87       	std	Z+8, r24	; 0x08
     2e2:	8b e6       	ldi	r24, 0x6B	; 107
     2e4:	9e e1       	ldi	r25, 0x1E	; 30
     2e6:	93 87       	std	Z+11, r25	; 0x0b
     2e8:	82 87       	std	Z+10, r24	; 0x0a
     2ea:	89 e8       	ldi	r24, 0x89	; 137
     2ec:	9e e1       	ldi	r25, 0x1E	; 30
     2ee:	97 87       	std	Z+15, r25	; 0x0f
     2f0:	86 87       	std	Z+14, r24	; 0x0e
     2f2:	89 e8       	ldi	r24, 0x89	; 137
     2f4:	9e e1       	ldi	r25, 0x1E	; 30
     2f6:	95 8b       	std	Z+21, r25	; 0x15
     2f8:	84 8b       	std	Z+20, r24	; 0x14
     2fa:	8f e5       	ldi	r24, 0x5F	; 95
     2fc:	9e e1       	ldi	r25, 0x1E	; 30
     2fe:	97 8b       	std	Z+23, r25	; 0x17
     300:	86 8b       	std	Z+22, r24	; 0x16
     302:	8f e1       	ldi	r24, 0x1F	; 31
     304:	9e e1       	ldi	r25, 0x1E	; 30
     306:	91 8f       	std	Z+25, r25	; 0x19
     308:	80 8f       	std	Z+24, r24	; 0x18
     30a:	81 e7       	ldi	r24, 0x71	; 113
     30c:	9e e1       	ldi	r25, 0x1E	; 30
     30e:	93 8f       	std	Z+27, r25	; 0x1b
     310:	82 8f       	std	Z+26, r24	; 0x1a
     312:	8d e3       	ldi	r24, 0x3D	; 61
     314:	9e e1       	ldi	r25, 0x1E	; 30
     316:	95 8f       	std	Z+29, r25	; 0x1d
     318:	84 8f       	std	Z+28, r24	; 0x1c
}
     31a:	cf 01       	movw	r24, r30
     31c:	08 95       	ret

0000031e <FUNCswap>:
	return i;
}
uint8_t bintobcd(uint8_t bin)
{
	return (uint8_t)((((bin) / 10) << 4) + ((bin) % 10));
}
     31e:	cf 92       	push	r12
     320:	df 92       	push	r13
     322:	ef 92       	push	r14
     324:	ff 92       	push	r15
     326:	0f 93       	push	r16
     328:	1f 93       	push	r17
     32a:	fc 01       	movw	r30, r24
     32c:	00 81       	ld	r16, Z
     32e:	11 81       	ldd	r17, Z+1	; 0x01
     330:	22 81       	ldd	r18, Z+2	; 0x02
     332:	33 81       	ldd	r19, Z+3	; 0x03
     334:	fb 01       	movw	r30, r22
     336:	c0 80       	ld	r12, Z
     338:	d1 80       	ldd	r13, Z+1	; 0x01
     33a:	e2 80       	ldd	r14, Z+2	; 0x02
     33c:	f3 80       	ldd	r15, Z+3	; 0x03
     33e:	fc 01       	movw	r30, r24
     340:	c0 82       	st	Z, r12
     342:	d1 82       	std	Z+1, r13	; 0x01
     344:	e2 82       	std	Z+2, r14	; 0x02
     346:	f3 82       	std	Z+3, r15	; 0x03
     348:	fb 01       	movw	r30, r22
     34a:	00 83       	st	Z, r16
     34c:	11 83       	std	Z+1, r17	; 0x01
     34e:	22 83       	std	Z+2, r18	; 0x02
     350:	33 83       	std	Z+3, r19	; 0x03
     352:	1f 91       	pop	r17
     354:	0f 91       	pop	r16
     356:	ff 90       	pop	r15
     358:	ef 90       	pop	r14
     35a:	df 90       	pop	r13
     35c:	cf 90       	pop	r12
     35e:	08 95       	ret

00000360 <FUNCcopy>:
     360:	fb 01       	movw	r30, r22
     362:	20 81       	ld	r18, Z
     364:	fc 01       	movw	r30, r24
     366:	20 83       	st	Z, r18
     368:	22 23       	and	r18, r18
     36a:	39 f0       	breq	.+14     	; 0x37a <FUNCcopy+0x1a>
     36c:	db 01       	movw	r26, r22
     36e:	11 96       	adiw	r26, 0x01	; 1
     370:	31 96       	adiw	r30, 0x01	; 1
     372:	9d 91       	ld	r25, X+
     374:	91 93       	st	Z+, r25
     376:	91 11       	cpse	r25, r1
     378:	fc cf       	rjmp	.-8      	; 0x372 <FUNCcopy+0x12>
     37a:	08 95       	ret

0000037c <FUNCsqueeze>:
     37c:	cf 93       	push	r28
     37e:	df 93       	push	r29
     380:	ec 01       	movw	r28, r24
     382:	98 81       	ld	r25, Y
     384:	99 23       	and	r25, r25
     386:	99 f0       	breq	.+38     	; 0x3ae <FUNCsqueeze+0x32>
     388:	fe 01       	movw	r30, r28
     38a:	31 96       	adiw	r30, 0x01	; 1
     38c:	20 e0       	ldi	r18, 0x00	; 0
     38e:	30 e0       	ldi	r19, 0x00	; 0
     390:	49 2f       	mov	r20, r25
     392:	50 e0       	ldi	r21, 0x00	; 0
     394:	46 17       	cp	r20, r22
     396:	57 07       	cpc	r21, r23
     398:	31 f0       	breq	.+12     	; 0x3a6 <FUNCsqueeze+0x2a>
     39a:	de 01       	movw	r26, r28
     39c:	a2 0f       	add	r26, r18
     39e:	b3 1f       	adc	r27, r19
     3a0:	9c 93       	st	X, r25
     3a2:	2f 5f       	subi	r18, 0xFF	; 255
     3a4:	3f 4f       	sbci	r19, 0xFF	; 255
     3a6:	91 91       	ld	r25, Z+
     3a8:	91 11       	cpse	r25, r1
     3aa:	f2 cf       	rjmp	.-28     	; 0x390 <FUNCsqueeze+0x14>
     3ac:	02 c0       	rjmp	.+4      	; 0x3b2 <FUNCsqueeze+0x36>
     3ae:	20 e0       	ldi	r18, 0x00	; 0
     3b0:	30 e0       	ldi	r19, 0x00	; 0
     3b2:	fe 01       	movw	r30, r28
     3b4:	e2 0f       	add	r30, r18
     3b6:	f3 1f       	adc	r31, r19
     3b8:	10 82       	st	Z, r1
     3ba:	df 91       	pop	r29
     3bc:	cf 91       	pop	r28
     3be:	08 95       	ret

000003c0 <FUNCshellsort>:
     3c0:	2f 92       	push	r2
     3c2:	3f 92       	push	r3
     3c4:	4f 92       	push	r4
     3c6:	5f 92       	push	r5
     3c8:	6f 92       	push	r6
     3ca:	7f 92       	push	r7
     3cc:	8f 92       	push	r8
     3ce:	9f 92       	push	r9
     3d0:	af 92       	push	r10
     3d2:	bf 92       	push	r11
     3d4:	cf 92       	push	r12
     3d6:	df 92       	push	r13
     3d8:	ef 92       	push	r14
     3da:	ff 92       	push	r15
     3dc:	0f 93       	push	r16
     3de:	1f 93       	push	r17
     3e0:	cf 93       	push	r28
     3e2:	df 93       	push	r29
     3e4:	00 d0       	rcall	.+0      	; 0x3e6 <FUNCshellsort+0x26>
     3e6:	00 d0       	rcall	.+0      	; 0x3e8 <FUNCshellsort+0x28>
     3e8:	cd b7       	in	r28, 0x3d	; 61
     3ea:	de b7       	in	r29, 0x3e	; 62
     3ec:	2c 01       	movw	r4, r24
     3ee:	1b 01       	movw	r2, r22
     3f0:	4b 01       	movw	r8, r22
     3f2:	77 23       	and	r23, r23
     3f4:	1c f4       	brge	.+6      	; 0x3fc <FUNCshellsort+0x3c>
     3f6:	2f ef       	ldi	r18, 0xFF	; 255
     3f8:	82 1a       	sub	r8, r18
     3fa:	92 0a       	sbc	r9, r18
     3fc:	95 94       	asr	r9
     3fe:	87 94       	ror	r8
     400:	18 14       	cp	r1, r8
     402:	19 04       	cpc	r1, r9
     404:	0c f4       	brge	.+2      	; 0x408 <__LOCK_REGION_LENGTH__+0x8>
     406:	51 c0       	rjmp	.+162    	; 0x4aa <__LOCK_REGION_LENGTH__+0xaa>
     408:	6a c0       	rjmp	.+212    	; 0x4de <__LOCK_REGION_LENGTH__+0xde>
     40a:	96 01       	movw	r18, r12
     40c:	dd 20       	and	r13, r13
     40e:	9c f1       	brlt	.+102    	; 0x476 <__LOCK_REGION_LENGTH__+0x76>
     410:	f5 01       	movw	r30, r10
     412:	40 81       	ld	r20, Z
     414:	51 81       	ldd	r21, Z+1	; 0x01
     416:	f4 01       	movw	r30, r8
     418:	60 81       	ld	r22, Z
     41a:	71 81       	ldd	r23, Z+1	; 0x01
     41c:	64 17       	cp	r22, r20
     41e:	75 07       	cpc	r23, r21
     420:	54 f5       	brge	.+84     	; 0x476 <__LOCK_REGION_LENGTH__+0x76>
     422:	8c 01       	movw	r16, r24
     424:	0a 0d       	add	r16, r10
     426:	1b 1d       	adc	r17, r11
     428:	d4 01       	movw	r26, r8
     42a:	bc 82       	std	Y+4, r11	; 0x04
     42c:	ab 82       	std	Y+3, r10	; 0x03
     42e:	ba 82       	std	Y+2, r11	; 0x02
     430:	a9 82       	std	Y+1, r10	; 0x01
     432:	eb 81       	ldd	r30, Y+3	; 0x03
     434:	fc 81       	ldd	r31, Y+4	; 0x04
     436:	71 83       	std	Z+1, r23	; 0x01
     438:	60 83       	st	Z, r22
     43a:	11 96       	adiw	r26, 0x01	; 1
     43c:	5c 93       	st	X, r21
     43e:	4e 93       	st	-X, r20
     440:	2e 19       	sub	r18, r14
     442:	3f 09       	sbc	r19, r15
     444:	c2 f0       	brmi	.+48     	; 0x476 <__LOCK_REGION_LENGTH__+0x76>
     446:	f8 01       	movw	r30, r16
     448:	40 81       	ld	r20, Z
     44a:	51 81       	ldd	r21, Z+1	; 0x01
     44c:	e9 81       	ldd	r30, Y+1	; 0x01
     44e:	fa 81       	ldd	r31, Y+2	; 0x02
     450:	60 81       	ld	r22, Z
     452:	71 81       	ldd	r23, Z+1	; 0x01
     454:	08 0f       	add	r16, r24
     456:	19 1f       	adc	r17, r25
     458:	e8 0f       	add	r30, r24
     45a:	f9 1f       	adc	r31, r25
     45c:	fa 83       	std	Y+2, r31	; 0x02
     45e:	e9 83       	std	Y+1, r30	; 0x01
     460:	eb 81       	ldd	r30, Y+3	; 0x03
     462:	fc 81       	ldd	r31, Y+4	; 0x04
     464:	e8 0f       	add	r30, r24
     466:	f9 1f       	adc	r31, r25
     468:	fc 83       	std	Y+4, r31	; 0x04
     46a:	eb 83       	std	Y+3, r30	; 0x03
     46c:	a8 0f       	add	r26, r24
     46e:	b9 1f       	adc	r27, r25
     470:	64 17       	cp	r22, r20
     472:	75 07       	cpc	r23, r21
     474:	f4 f2       	brlt	.-68     	; 0x432 <__LOCK_REGION_LENGTH__+0x32>
     476:	ff ef       	ldi	r31, 0xFF	; 255
     478:	cf 1a       	sub	r12, r31
     47a:	df 0a       	sbc	r13, r31
     47c:	22 e0       	ldi	r18, 0x02	; 2
     47e:	a2 0e       	add	r10, r18
     480:	b1 1c       	adc	r11, r1
     482:	e2 e0       	ldi	r30, 0x02	; 2
     484:	8e 0e       	add	r8, r30
     486:	91 1c       	adc	r9, r1
     488:	c6 14       	cp	r12, r6
     48a:	d7 04       	cpc	r13, r7
     48c:	09 f0       	breq	.+2      	; 0x490 <__LOCK_REGION_LENGTH__+0x90>
     48e:	bd cf       	rjmp	.-134    	; 0x40a <__LOCK_REGION_LENGTH__+0xa>
     490:	47 01       	movw	r8, r14
     492:	ff 20       	and	r15, r15
     494:	1c f4       	brge	.+6      	; 0x49c <__LOCK_REGION_LENGTH__+0x9c>
     496:	ff ef       	ldi	r31, 0xFF	; 255
     498:	8f 1a       	sub	r8, r31
     49a:	9f 0a       	sbc	r9, r31
     49c:	95 94       	asr	r9
     49e:	87 94       	ror	r8
     4a0:	18 14       	cp	r1, r8
     4a2:	19 04       	cpc	r1, r9
     4a4:	e4 f4       	brge	.+56     	; 0x4de <__LOCK_REGION_LENGTH__+0xde>
     4a6:	74 01       	movw	r14, r8
     4a8:	01 c0       	rjmp	.+2      	; 0x4ac <__LOCK_REGION_LENGTH__+0xac>
     4aa:	74 01       	movw	r14, r8
     4ac:	82 14       	cp	r8, r2
     4ae:	93 04       	cpc	r9, r3
     4b0:	7c f7       	brge	.-34     	; 0x490 <__LOCK_REGION_LENGTH__+0x90>
     4b2:	64 01       	movw	r12, r8
     4b4:	ce 18       	sub	r12, r14
     4b6:	df 08       	sbc	r13, r15
     4b8:	56 01       	movw	r10, r12
     4ba:	aa 0c       	add	r10, r10
     4bc:	bb 1c       	adc	r11, r11
     4be:	a4 0c       	add	r10, r4
     4c0:	b5 1c       	adc	r11, r5
     4c2:	88 0c       	add	r8, r8
     4c4:	99 1c       	adc	r9, r9
     4c6:	84 0c       	add	r8, r4
     4c8:	95 1c       	adc	r9, r5
     4ca:	31 01       	movw	r6, r2
     4cc:	6e 18       	sub	r6, r14
     4ce:	7f 08       	sbc	r7, r15
     4d0:	c7 01       	movw	r24, r14
     4d2:	88 0f       	add	r24, r24
     4d4:	99 1f       	adc	r25, r25
     4d6:	91 95       	neg	r25
     4d8:	81 95       	neg	r24
     4da:	91 09       	sbc	r25, r1
     4dc:	96 cf       	rjmp	.-212    	; 0x40a <__LOCK_REGION_LENGTH__+0xa>
     4de:	0f 90       	pop	r0
     4e0:	0f 90       	pop	r0
     4e2:	0f 90       	pop	r0
     4e4:	0f 90       	pop	r0
     4e6:	df 91       	pop	r29
     4e8:	cf 91       	pop	r28
     4ea:	1f 91       	pop	r17
     4ec:	0f 91       	pop	r16
     4ee:	ff 90       	pop	r15
     4f0:	ef 90       	pop	r14
     4f2:	df 90       	pop	r13
     4f4:	cf 90       	pop	r12
     4f6:	bf 90       	pop	r11
     4f8:	af 90       	pop	r10
     4fa:	9f 90       	pop	r9
     4fc:	8f 90       	pop	r8
     4fe:	7f 90       	pop	r7
     500:	6f 90       	pop	r6
     502:	5f 90       	pop	r5
     504:	4f 90       	pop	r4
     506:	3f 90       	pop	r3
     508:	2f 90       	pop	r2
     50a:	08 95       	ret

0000050c <FUNCpmax>:
     50c:	86 17       	cp	r24, r22
     50e:	97 07       	cpc	r25, r23
     510:	0c f4       	brge	.+2      	; 0x514 <FUNCpmax+0x8>
     512:	cb 01       	movw	r24, r22
     514:	08 95       	ret

00000516 <FUNCgcd>:
     516:	9b 01       	movw	r18, r22
     518:	67 2b       	or	r22, r23
     51a:	11 f4       	brne	.+4      	; 0x520 <FUNCgcd+0xa>
     51c:	08 95       	ret
     51e:	9a 01       	movw	r18, r20
     520:	b9 01       	movw	r22, r18
     522:	0e 94 d9 1a 	call	0x35b2	; 0x35b2 <__divmodhi4>
     526:	ac 01       	movw	r20, r24
     528:	82 2f       	mov	r24, r18
     52a:	93 2f       	mov	r25, r19
     52c:	41 15       	cp	r20, r1
     52e:	51 05       	cpc	r21, r1
     530:	b1 f7       	brne	.-20     	; 0x51e <FUNCgcd+0x8>
     532:	08 95       	ret

00000534 <FUNCstrToInt>:
     534:	fc 01       	movw	r30, r24
     536:	90 81       	ld	r25, Z
     538:	80 ed       	ldi	r24, 0xD0	; 208
     53a:	89 0f       	add	r24, r25
     53c:	8a 30       	cpi	r24, 0x0A	; 10
     53e:	d0 f4       	brcc	.+52     	; 0x574 <FUNCstrToInt+0x40>
     540:	31 96       	adiw	r30, 0x01	; 1
     542:	20 e0       	ldi	r18, 0x00	; 0
     544:	30 e0       	ldi	r19, 0x00	; 0
     546:	a9 01       	movw	r20, r18
     548:	44 0f       	add	r20, r20
     54a:	55 1f       	adc	r21, r21
     54c:	22 0f       	add	r18, r18
     54e:	33 1f       	adc	r19, r19
     550:	22 0f       	add	r18, r18
     552:	33 1f       	adc	r19, r19
     554:	22 0f       	add	r18, r18
     556:	33 1f       	adc	r19, r19
     558:	42 0f       	add	r20, r18
     55a:	53 1f       	adc	r21, r19
     55c:	29 2f       	mov	r18, r25
     55e:	30 e0       	ldi	r19, 0x00	; 0
     560:	20 53       	subi	r18, 0x30	; 48
     562:	31 09       	sbc	r19, r1
     564:	24 0f       	add	r18, r20
     566:	35 1f       	adc	r19, r21
     568:	91 91       	ld	r25, Z+
     56a:	80 ed       	ldi	r24, 0xD0	; 208
     56c:	89 0f       	add	r24, r25
     56e:	8a 30       	cpi	r24, 0x0A	; 10
     570:	50 f3       	brcs	.-44     	; 0x546 <FUNCstrToInt+0x12>
     572:	02 c0       	rjmp	.+4      	; 0x578 <FUNCstrToInt+0x44>
     574:	20 e0       	ldi	r18, 0x00	; 0
     576:	30 e0       	ldi	r19, 0x00	; 0
     578:	c9 01       	movw	r24, r18
     57a:	08 95       	ret

0000057c <FUNCfilter>:
     57c:	86 23       	and	r24, r22
     57e:	08 95       	ret

00000580 <FUNCticks>:
     580:	00 97       	sbiw	r24, 0x00	; 0
     582:	39 f0       	breq	.+14     	; 0x592 <FUNCticks+0x12>
     584:	20 e0       	ldi	r18, 0x00	; 0
     586:	30 e0       	ldi	r19, 0x00	; 0
     588:	2f 5f       	subi	r18, 0xFF	; 255
     58a:	3f 4f       	sbci	r19, 0xFF	; 255
     58c:	82 17       	cp	r24, r18
     58e:	93 07       	cpc	r25, r19
     590:	d9 f7       	brne	.-10     	; 0x588 <FUNCticks+0x8>
     592:	08 95       	ret

00000594 <FUNCtwocomptoint8bit>:
     594:	87 ff       	sbrs	r24, 7
     596:	08 c0       	rjmp	.+16     	; 0x5a8 <FUNCtwocomptoint8bit+0x14>
     598:	91 95       	neg	r25
     59a:	81 95       	neg	r24
     59c:	91 09       	sbc	r25, r1
     59e:	99 27       	eor	r25, r25
     5a0:	91 95       	neg	r25
     5a2:	81 95       	neg	r24
     5a4:	91 09       	sbc	r25, r1
     5a6:	08 95       	ret
     5a8:	8f 77       	andi	r24, 0x7F	; 127
     5aa:	99 27       	eor	r25, r25
     5ac:	08 95       	ret

000005ae <FUNCtwocomptoint10bit>:
     5ae:	91 ff       	sbrs	r25, 1
     5b0:	08 c0       	rjmp	.+16     	; 0x5c2 <FUNCtwocomptoint10bit+0x14>
     5b2:	91 95       	neg	r25
     5b4:	81 95       	neg	r24
     5b6:	91 09       	sbc	r25, r1
     5b8:	93 70       	andi	r25, 0x03	; 3
     5ba:	91 95       	neg	r25
     5bc:	81 95       	neg	r24
     5be:	91 09       	sbc	r25, r1
     5c0:	08 95       	ret
     5c2:	91 70       	andi	r25, 0x01	; 1
     5c4:	08 95       	ret

000005c6 <FUNCtwocomptointnbit>:
     5c6:	61 50       	subi	r22, 0x01	; 1
     5c8:	21 e0       	ldi	r18, 0x01	; 1
     5ca:	30 e0       	ldi	r19, 0x00	; 0
     5cc:	02 c0       	rjmp	.+4      	; 0x5d2 <FUNCtwocomptointnbit+0xc>
     5ce:	22 0f       	add	r18, r18
     5d0:	33 1f       	adc	r19, r19
     5d2:	6a 95       	dec	r22
     5d4:	e2 f7       	brpl	.-8      	; 0x5ce <FUNCtwocomptointnbit+0x8>
     5d6:	a9 01       	movw	r20, r18
     5d8:	41 50       	subi	r20, 0x01	; 1
     5da:	51 09       	sbc	r21, r1
     5dc:	b9 01       	movw	r22, r18
     5de:	68 23       	and	r22, r24
     5e0:	79 23       	and	r23, r25
     5e2:	67 2b       	or	r22, r23
     5e4:	29 f0       	breq	.+10     	; 0x5f0 <FUNCtwocomptointnbit+0x2a>
     5e6:	84 23       	and	r24, r20
     5e8:	95 23       	and	r25, r21
     5ea:	82 1b       	sub	r24, r18
     5ec:	93 0b       	sbc	r25, r19
     5ee:	08 95       	ret
     5f0:	84 23       	and	r24, r20
     5f2:	95 23       	and	r25, r21
     5f4:	08 95       	ret

000005f6 <FUNCdec2bcd>:
     5f6:	9d ec       	ldi	r25, 0xCD	; 205
     5f8:	89 9f       	mul	r24, r25
     5fa:	91 2d       	mov	r25, r1
     5fc:	11 24       	eor	r1, r1
     5fe:	96 95       	lsr	r25
     600:	96 95       	lsr	r25
     602:	96 95       	lsr	r25
     604:	39 2f       	mov	r19, r25
     606:	33 0f       	add	r19, r19
     608:	23 2f       	mov	r18, r19
     60a:	22 0f       	add	r18, r18
     60c:	22 0f       	add	r18, r18
     60e:	23 0f       	add	r18, r19
     610:	82 1b       	sub	r24, r18
     612:	20 e1       	ldi	r18, 0x10	; 16
     614:	92 9f       	mul	r25, r18
     616:	80 0d       	add	r24, r0
     618:	11 24       	eor	r1, r1
     61a:	08 95       	ret

0000061c <FUNCbcd2dec>:
     61c:	98 2f       	mov	r25, r24
     61e:	92 95       	swap	r25
     620:	9f 70       	andi	r25, 0x0F	; 15
     622:	99 0f       	add	r25, r25
     624:	29 2f       	mov	r18, r25
     626:	22 0f       	add	r18, r18
     628:	22 0f       	add	r18, r18
     62a:	92 0f       	add	r25, r18
     62c:	8f 70       	andi	r24, 0x0F	; 15
     62e:	89 0f       	add	r24, r25
     630:	08 95       	ret

00000632 <FUNCresizestr>:
     632:	fc 01       	movw	r30, r24
     634:	db 01       	movw	r26, r22
     636:	a6 51       	subi	r26, 0x16	; 22
     638:	be 4f       	sbci	r27, 0xFE	; 254
     63a:	1c 92       	st	X, r1
     63c:	16 16       	cp	r1, r22
     63e:	17 06       	cpc	r1, r23
     640:	14 f5       	brge	.+68     	; 0x686 <FUNCresizestr+0x54>
     642:	90 81       	ld	r25, Z
     644:	91 11       	cpse	r25, r1
     646:	0c c0       	rjmp	.+24     	; 0x660 <FUNCresizestr+0x2e>
     648:	17 c0       	rjmp	.+46     	; 0x678 <FUNCresizestr+0x46>
     64a:	91 91       	ld	r25, Z+
     64c:	91 11       	cpse	r25, r1
     64e:	0d c0       	rjmp	.+26     	; 0x66a <FUNCresizestr+0x38>
     650:	15 c0       	rjmp	.+42     	; 0x67c <FUNCresizestr+0x4a>
     652:	81 93       	st	Z+, r24
     654:	2f 5f       	subi	r18, 0xFF	; 255
     656:	3f 4f       	sbci	r19, 0xFF	; 255
     658:	26 17       	cp	r18, r22
     65a:	37 07       	cpc	r19, r23
     65c:	d4 f3       	brlt	.-12     	; 0x652 <FUNCresizestr+0x20>
     65e:	13 c0       	rjmp	.+38     	; 0x686 <FUNCresizestr+0x54>
     660:	aa ee       	ldi	r26, 0xEA	; 234
     662:	b1 e0       	ldi	r27, 0x01	; 1
     664:	31 96       	adiw	r30, 0x01	; 1
     666:	20 e0       	ldi	r18, 0x00	; 0
     668:	30 e0       	ldi	r19, 0x00	; 0
     66a:	9d 93       	st	X+, r25
     66c:	2f 5f       	subi	r18, 0xFF	; 255
     66e:	3f 4f       	sbci	r19, 0xFF	; 255
     670:	62 17       	cp	r22, r18
     672:	73 07       	cpc	r23, r19
     674:	51 f7       	brne	.-44     	; 0x64a <FUNCresizestr+0x18>
     676:	07 c0       	rjmp	.+14     	; 0x686 <FUNCresizestr+0x54>
     678:	20 e0       	ldi	r18, 0x00	; 0
     67a:	30 e0       	ldi	r19, 0x00	; 0
     67c:	f9 01       	movw	r30, r18
     67e:	e6 51       	subi	r30, 0x16	; 22
     680:	fe 4f       	sbci	r31, 0xFE	; 254
     682:	80 e2       	ldi	r24, 0x20	; 32
     684:	e6 cf       	rjmp	.-52     	; 0x652 <FUNCresizestr+0x20>
     686:	8a ee       	ldi	r24, 0xEA	; 234
     688:	91 e0       	ldi	r25, 0x01	; 1
     68a:	08 95       	ret

0000068c <FUNCtrimmer>:
     68c:	4f 92       	push	r4
     68e:	5f 92       	push	r5
     690:	6f 92       	push	r6
     692:	7f 92       	push	r7
     694:	af 92       	push	r10
     696:	bf 92       	push	r11
     698:	cf 92       	push	r12
     69a:	df 92       	push	r13
     69c:	ef 92       	push	r14
     69e:	ff 92       	push	r15
     6a0:	0f 93       	push	r16
     6a2:	1f 93       	push	r17
     6a4:	cf 93       	push	r28
     6a6:	df 93       	push	r29
     6a8:	cd b7       	in	r28, 0x3d	; 61
     6aa:	de b7       	in	r29, 0x3e	; 62
     6ac:	29 01       	movw	r4, r18
     6ae:	3a 01       	movw	r6, r20
     6b0:	9b 01       	movw	r18, r22
     6b2:	ac 01       	movw	r20, r24
     6b4:	24 19       	sub	r18, r4
     6b6:	35 09       	sbc	r19, r5
     6b8:	46 09       	sbc	r20, r6
     6ba:	57 09       	sbc	r21, r7
     6bc:	89 89       	ldd	r24, Y+17	; 0x11
     6be:	9a 89       	ldd	r25, Y+18	; 0x12
     6c0:	ab 89       	ldd	r26, Y+19	; 0x13
     6c2:	bc 89       	ldd	r27, Y+20	; 0x14
     6c4:	bc 01       	movw	r22, r24
     6c6:	cd 01       	movw	r24, r26
     6c8:	6a 19       	sub	r22, r10
     6ca:	7b 09       	sbc	r23, r11
     6cc:	8c 09       	sbc	r24, r12
     6ce:	9d 09       	sbc	r25, r13
     6d0:	0e 94 c9 1a 	call	0x3592	; 0x3592 <__mulsi3>
     6d4:	a8 01       	movw	r20, r16
     6d6:	97 01       	movw	r18, r14
     6d8:	24 19       	sub	r18, r4
     6da:	35 09       	sbc	r19, r5
     6dc:	46 09       	sbc	r20, r6
     6de:	57 09       	sbc	r21, r7
     6e0:	0e 94 ed 1a 	call	0x35da	; 0x35da <__divmodsi4>
     6e4:	ca 01       	movw	r24, r20
     6e6:	b9 01       	movw	r22, r18
     6e8:	6a 0d       	add	r22, r10
     6ea:	7b 1d       	adc	r23, r11
     6ec:	8c 1d       	adc	r24, r12
     6ee:	9d 1d       	adc	r25, r13
     6f0:	df 91       	pop	r29
     6f2:	cf 91       	pop	r28
     6f4:	1f 91       	pop	r17
     6f6:	0f 91       	pop	r16
     6f8:	ff 90       	pop	r15
     6fa:	ef 90       	pop	r14
     6fc:	df 90       	pop	r13
     6fe:	cf 90       	pop	r12
     700:	bf 90       	pop	r11
     702:	af 90       	pop	r10
     704:	7f 90       	pop	r7
     706:	6f 90       	pop	r6
     708:	5f 90       	pop	r5
     70a:	4f 90       	pop	r4
     70c:	08 95       	ret

0000070e <StringLength>:
     70e:	fc 01       	movw	r30, r24
     710:	20 81       	ld	r18, Z
     712:	22 23       	and	r18, r18
     714:	41 f0       	breq	.+16     	; 0x726 <StringLength+0x18>
     716:	31 96       	adiw	r30, 0x01	; 1
     718:	80 e0       	ldi	r24, 0x00	; 0
     71a:	90 e0       	ldi	r25, 0x00	; 0
     71c:	01 96       	adiw	r24, 0x01	; 1
     71e:	21 91       	ld	r18, Z+
     720:	21 11       	cpse	r18, r1
     722:	fc cf       	rjmp	.-8      	; 0x71c <StringLength+0xe>
     724:	08 95       	ret
     726:	80 e0       	ldi	r24, 0x00	; 0
     728:	90 e0       	ldi	r25, 0x00	; 0
     72a:	08 95       	ret

0000072c <FUNCtrim>:
     72c:	cf 93       	push	r28
     72e:	df 93       	push	r29
     730:	ec 01       	movw	r28, r24
     732:	0e 94 87 03 	call	0x70e	; 0x70e <StringLength>
     736:	9c 01       	movw	r18, r24
     738:	21 50       	subi	r18, 0x01	; 1
     73a:	31 09       	sbc	r19, r1
     73c:	62 f0       	brmi	.+24     	; 0x756 <FUNCtrim+0x2a>
     73e:	fe 01       	movw	r30, r28
     740:	e8 0f       	add	r30, r24
     742:	f9 1f       	adc	r31, r25
     744:	92 91       	ld	r25, -Z
     746:	90 32       	cpi	r25, 0x20	; 32
     748:	19 f0       	breq	.+6      	; 0x750 <FUNCtrim+0x24>
     74a:	99 50       	subi	r25, 0x09	; 9
     74c:	92 30       	cpi	r25, 0x02	; 2
     74e:	18 f4       	brcc	.+6      	; 0x756 <FUNCtrim+0x2a>
     750:	21 50       	subi	r18, 0x01	; 1
     752:	31 09       	sbc	r19, r1
     754:	b8 f7       	brcc	.-18     	; 0x744 <FUNCtrim+0x18>
     756:	c2 0f       	add	r28, r18
     758:	d3 1f       	adc	r29, r19
     75a:	19 82       	std	Y+1, r1	; 0x01
     75c:	c9 01       	movw	r24, r18
     75e:	df 91       	pop	r29
     760:	cf 91       	pop	r28
     762:	08 95       	ret

00000764 <Reverse>:
     764:	cf 93       	push	r28
     766:	df 93       	push	r29
     768:	ec 01       	movw	r28, r24
     76a:	0e 94 87 03 	call	0x70e	; 0x70e <StringLength>
     76e:	9c 01       	movw	r18, r24
     770:	21 50       	subi	r18, 0x01	; 1
     772:	31 09       	sbc	r19, r1
     774:	12 16       	cp	r1, r18
     776:	13 06       	cpc	r1, r19
     778:	84 f4       	brge	.+32     	; 0x79a <Reverse+0x36>
     77a:	de 01       	movw	r26, r28
     77c:	a8 0f       	add	r26, r24
     77e:	b9 1f       	adc	r27, r25
     780:	fe 01       	movw	r30, r28
     782:	80 e0       	ldi	r24, 0x00	; 0
     784:	90 e0       	ldi	r25, 0x00	; 0
     786:	40 81       	ld	r20, Z
     788:	5e 91       	ld	r21, -X
     78a:	51 93       	st	Z+, r21
     78c:	4c 93       	st	X, r20
     78e:	01 96       	adiw	r24, 0x01	; 1
     790:	21 50       	subi	r18, 0x01	; 1
     792:	31 09       	sbc	r19, r1
     794:	82 17       	cp	r24, r18
     796:	93 07       	cpc	r25, r19
     798:	b4 f3       	brlt	.-20     	; 0x786 <Reverse+0x22>
     79a:	df 91       	pop	r29
     79c:	cf 91       	pop	r28
     79e:	08 95       	ret

000007a0 <FUNCi32toa>:
     7a0:	8f 92       	push	r8
     7a2:	9f 92       	push	r9
     7a4:	af 92       	push	r10
     7a6:	bf 92       	push	r11
     7a8:	cf 92       	push	r12
     7aa:	df 92       	push	r13
     7ac:	ef 92       	push	r14
     7ae:	ff 92       	push	r15
     7b0:	0f 93       	push	r16
     7b2:	1f 93       	push	r17
     7b4:	cf 93       	push	r28
     7b6:	df 93       	push	r29
     7b8:	6b 01       	movw	r12, r22
     7ba:	7c 01       	movw	r14, r24
     7bc:	dc 01       	movw	r26, r24
     7be:	cb 01       	movw	r24, r22
     7c0:	ff 20       	and	r15, r15
     7c2:	3c f4       	brge	.+14     	; 0x7d2 <FUNCi32toa+0x32>
     7c4:	88 27       	eor	r24, r24
     7c6:	99 27       	eor	r25, r25
     7c8:	dc 01       	movw	r26, r24
     7ca:	8c 19       	sub	r24, r12
     7cc:	9d 09       	sbc	r25, r13
     7ce:	ae 09       	sbc	r26, r14
     7d0:	bf 09       	sbc	r27, r15
     7d2:	bc 01       	movw	r22, r24
     7d4:	cd 01       	movw	r24, r26
     7d6:	10 e0       	ldi	r17, 0x00	; 0
     7d8:	0f 2e       	mov	r0, r31
     7da:	fa e0       	ldi	r31, 0x0A	; 10
     7dc:	8f 2e       	mov	r8, r31
     7de:	91 2c       	mov	r9, r1
     7e0:	a1 2c       	mov	r10, r1
     7e2:	b1 2c       	mov	r11, r1
     7e4:	f0 2d       	mov	r31, r0
     7e6:	01 c0       	rjmp	.+2      	; 0x7ea <FUNCi32toa+0x4a>
     7e8:	10 2f       	mov	r17, r16
     7ea:	01 e0       	ldi	r16, 0x01	; 1
     7ec:	01 0f       	add	r16, r17
     7ee:	c1 2f       	mov	r28, r17
     7f0:	d0 e0       	ldi	r29, 0x00	; 0
     7f2:	c6 51       	subi	r28, 0x16	; 22
     7f4:	de 4f       	sbci	r29, 0xFE	; 254
     7f6:	a5 01       	movw	r20, r10
     7f8:	94 01       	movw	r18, r8
     7fa:	0e 94 ed 1a 	call	0x35da	; 0x35da <__divmodsi4>
     7fe:	60 5d       	subi	r22, 0xD0	; 208
     800:	68 83       	st	Y, r22
     802:	62 2f       	mov	r22, r18
     804:	73 2f       	mov	r23, r19
     806:	84 2f       	mov	r24, r20
     808:	95 2f       	mov	r25, r21
     80a:	16 16       	cp	r1, r22
     80c:	17 06       	cpc	r1, r23
     80e:	18 06       	cpc	r1, r24
     810:	19 06       	cpc	r1, r25
     812:	54 f3       	brlt	.-44     	; 0x7e8 <FUNCi32toa+0x48>
     814:	ff 20       	and	r15, r15
     816:	44 f4       	brge	.+16     	; 0x828 <FUNCi32toa+0x88>
     818:	e0 2f       	mov	r30, r16
     81a:	f0 e0       	ldi	r31, 0x00	; 0
     81c:	e6 51       	subi	r30, 0x16	; 22
     81e:	fe 4f       	sbci	r31, 0xFE	; 254
     820:	8d e2       	ldi	r24, 0x2D	; 45
     822:	80 83       	st	Z, r24
     824:	02 e0       	ldi	r16, 0x02	; 2
     826:	01 0f       	add	r16, r17
     828:	e0 2f       	mov	r30, r16
     82a:	f0 e0       	ldi	r31, 0x00	; 0
     82c:	e6 51       	subi	r30, 0x16	; 22
     82e:	fe 4f       	sbci	r31, 0xFE	; 254
     830:	10 82       	st	Z, r1
     832:	8a ee       	ldi	r24, 0xEA	; 234
     834:	91 e0       	ldi	r25, 0x01	; 1
     836:	0e 94 b2 03 	call	0x764	; 0x764 <Reverse>
     83a:	8a ee       	ldi	r24, 0xEA	; 234
     83c:	91 e0       	ldi	r25, 0x01	; 1
     83e:	df 91       	pop	r29
     840:	cf 91       	pop	r28
     842:	1f 91       	pop	r17
     844:	0f 91       	pop	r16
     846:	ff 90       	pop	r15
     848:	ef 90       	pop	r14
     84a:	df 90       	pop	r13
     84c:	cf 90       	pop	r12
     84e:	bf 90       	pop	r11
     850:	af 90       	pop	r10
     852:	9f 90       	pop	r9
     854:	8f 90       	pop	r8
     856:	08 95       	ret

00000858 <FUNCi16toa>:
     858:	0f 93       	push	r16
     85a:	1f 93       	push	r17
     85c:	cf 93       	push	r28
     85e:	df 93       	push	r29
     860:	ec 01       	movw	r28, r24
     862:	99 23       	and	r25, r25
     864:	24 f4       	brge	.+8      	; 0x86e <FUNCi16toa+0x16>
     866:	88 27       	eor	r24, r24
     868:	99 27       	eor	r25, r25
     86a:	8c 1b       	sub	r24, r28
     86c:	9d 0b       	sbc	r25, r29
     86e:	20 e0       	ldi	r18, 0x00	; 0
     870:	0a e0       	ldi	r16, 0x0A	; 10
     872:	10 e0       	ldi	r17, 0x00	; 0
     874:	01 c0       	rjmp	.+2      	; 0x878 <FUNCi16toa+0x20>
     876:	23 2f       	mov	r18, r19
     878:	31 e0       	ldi	r19, 0x01	; 1
     87a:	32 0f       	add	r19, r18
     87c:	e2 2f       	mov	r30, r18
     87e:	f0 e0       	ldi	r31, 0x00	; 0
     880:	e6 51       	subi	r30, 0x16	; 22
     882:	fe 4f       	sbci	r31, 0xFE	; 254
     884:	b8 01       	movw	r22, r16
     886:	0e 94 d9 1a 	call	0x35b2	; 0x35b2 <__divmodhi4>
     88a:	80 5d       	subi	r24, 0xD0	; 208
     88c:	80 83       	st	Z, r24
     88e:	86 2f       	mov	r24, r22
     890:	97 2f       	mov	r25, r23
     892:	18 16       	cp	r1, r24
     894:	19 06       	cpc	r1, r25
     896:	7c f3       	brlt	.-34     	; 0x876 <FUNCi16toa+0x1e>
     898:	dd 23       	and	r29, r29
     89a:	44 f4       	brge	.+16     	; 0x8ac <FUNCi16toa+0x54>
     89c:	e3 2f       	mov	r30, r19
     89e:	f0 e0       	ldi	r31, 0x00	; 0
     8a0:	e6 51       	subi	r30, 0x16	; 22
     8a2:	fe 4f       	sbci	r31, 0xFE	; 254
     8a4:	8d e2       	ldi	r24, 0x2D	; 45
     8a6:	80 83       	st	Z, r24
     8a8:	32 e0       	ldi	r19, 0x02	; 2
     8aa:	32 0f       	add	r19, r18
     8ac:	e3 2f       	mov	r30, r19
     8ae:	f0 e0       	ldi	r31, 0x00	; 0
     8b0:	e6 51       	subi	r30, 0x16	; 22
     8b2:	fe 4f       	sbci	r31, 0xFE	; 254
     8b4:	10 82       	st	Z, r1
     8b6:	8a ee       	ldi	r24, 0xEA	; 234
     8b8:	91 e0       	ldi	r25, 0x01	; 1
     8ba:	0e 94 b2 03 	call	0x764	; 0x764 <Reverse>
     8be:	8a ee       	ldi	r24, 0xEA	; 234
     8c0:	91 e0       	ldi	r25, 0x01	; 1
     8c2:	df 91       	pop	r29
     8c4:	cf 91       	pop	r28
     8c6:	1f 91       	pop	r17
     8c8:	0f 91       	pop	r16
     8ca:	08 95       	ret

000008cc <FUNCui16toa>:
     8cc:	cf 93       	push	r28
     8ce:	ac 01       	movw	r20, r24
     8d0:	9c 01       	movw	r18, r24
     8d2:	ad ec       	ldi	r26, 0xCD	; 205
     8d4:	bc ec       	ldi	r27, 0xCC	; 204
     8d6:	0e 94 12 1b 	call	0x3624	; 0x3624 <__umulhisi3>
     8da:	96 95       	lsr	r25
     8dc:	87 95       	ror	r24
     8de:	96 95       	lsr	r25
     8e0:	87 95       	ror	r24
     8e2:	96 95       	lsr	r25
     8e4:	87 95       	ror	r24
     8e6:	9c 01       	movw	r18, r24
     8e8:	22 0f       	add	r18, r18
     8ea:	33 1f       	adc	r19, r19
     8ec:	88 0f       	add	r24, r24
     8ee:	99 1f       	adc	r25, r25
     8f0:	88 0f       	add	r24, r24
     8f2:	99 1f       	adc	r25, r25
     8f4:	88 0f       	add	r24, r24
     8f6:	99 1f       	adc	r25, r25
     8f8:	82 0f       	add	r24, r18
     8fa:	93 1f       	adc	r25, r19
     8fc:	9a 01       	movw	r18, r20
     8fe:	28 1b       	sub	r18, r24
     900:	39 0b       	sbc	r19, r25
     902:	c9 01       	movw	r24, r18
     904:	80 5d       	subi	r24, 0xD0	; 208
     906:	80 93 ea 01 	sts	0x01EA, r24	; 0x8001ea <FUNCstr>
     90a:	9a 01       	movw	r18, r20
     90c:	0e 94 12 1b 	call	0x3624	; 0x3624 <__umulhisi3>
     910:	ac 01       	movw	r20, r24
     912:	56 95       	lsr	r21
     914:	47 95       	ror	r20
     916:	56 95       	lsr	r21
     918:	47 95       	ror	r20
     91a:	56 95       	lsr	r21
     91c:	47 95       	ror	r20
     91e:	41 15       	cp	r20, r1
     920:	51 05       	cpc	r21, r1
     922:	89 f1       	breq	.+98     	; 0x986 <__stack+0x87>
     924:	e1 e0       	ldi	r30, 0x01	; 1
     926:	c1 e0       	ldi	r28, 0x01	; 1
     928:	ce 0f       	add	r28, r30
     92a:	f0 e0       	ldi	r31, 0x00	; 0
     92c:	e6 51       	subi	r30, 0x16	; 22
     92e:	fe 4f       	sbci	r31, 0xFE	; 254
     930:	9a 01       	movw	r18, r20
     932:	ad ec       	ldi	r26, 0xCD	; 205
     934:	bc ec       	ldi	r27, 0xCC	; 204
     936:	0e 94 12 1b 	call	0x3624	; 0x3624 <__umulhisi3>
     93a:	96 95       	lsr	r25
     93c:	87 95       	ror	r24
     93e:	96 95       	lsr	r25
     940:	87 95       	ror	r24
     942:	96 95       	lsr	r25
     944:	87 95       	ror	r24
     946:	9c 01       	movw	r18, r24
     948:	22 0f       	add	r18, r18
     94a:	33 1f       	adc	r19, r19
     94c:	88 0f       	add	r24, r24
     94e:	99 1f       	adc	r25, r25
     950:	88 0f       	add	r24, r24
     952:	99 1f       	adc	r25, r25
     954:	88 0f       	add	r24, r24
     956:	99 1f       	adc	r25, r25
     958:	82 0f       	add	r24, r18
     95a:	93 1f       	adc	r25, r19
     95c:	9a 01       	movw	r18, r20
     95e:	28 1b       	sub	r18, r24
     960:	39 0b       	sbc	r19, r25
     962:	c9 01       	movw	r24, r18
     964:	80 5d       	subi	r24, 0xD0	; 208
     966:	80 83       	st	Z, r24
     968:	9a 01       	movw	r18, r20
     96a:	0e 94 12 1b 	call	0x3624	; 0x3624 <__umulhisi3>
     96e:	ac 01       	movw	r20, r24
     970:	56 95       	lsr	r21
     972:	47 95       	ror	r20
     974:	56 95       	lsr	r21
     976:	47 95       	ror	r20
     978:	56 95       	lsr	r21
     97a:	47 95       	ror	r20
     97c:	ec 2f       	mov	r30, r28
     97e:	41 15       	cp	r20, r1
     980:	51 05       	cpc	r21, r1
     982:	89 f6       	brne	.-94     	; 0x926 <__stack+0x27>
     984:	01 c0       	rjmp	.+2      	; 0x988 <__stack+0x89>
     986:	c1 e0       	ldi	r28, 0x01	; 1
     988:	ec 2f       	mov	r30, r28
     98a:	f0 e0       	ldi	r31, 0x00	; 0
     98c:	e6 51       	subi	r30, 0x16	; 22
     98e:	fe 4f       	sbci	r31, 0xFE	; 254
     990:	10 82       	st	Z, r1
     992:	8a ee       	ldi	r24, 0xEA	; 234
     994:	91 e0       	ldi	r25, 0x01	; 1
     996:	0e 94 b2 03 	call	0x764	; 0x764 <Reverse>
     99a:	8a ee       	ldi	r24, 0xEA	; 234
     99c:	91 e0       	ldi	r25, 0x01	; 1
     99e:	cf 91       	pop	r28
     9a0:	08 95       	ret

000009a2 <FUNCbcd2bin>:
     9a2:	98 2f       	mov	r25, r24
     9a4:	92 95       	swap	r25
     9a6:	9f 70       	andi	r25, 0x0F	; 15
     9a8:	99 0f       	add	r25, r25
     9aa:	29 2f       	mov	r18, r25
     9ac:	22 0f       	add	r18, r18
     9ae:	22 0f       	add	r18, r18
     9b0:	92 0f       	add	r25, r18
     9b2:	8f 70       	andi	r24, 0x0F	; 15
     9b4:	89 0f       	add	r24, r25
     9b6:	08 95       	ret

000009b8 <FUNCbin2bcd>:
     9b8:	ac 01       	movw	r20, r24
     9ba:	9c 01       	movw	r18, r24
     9bc:	ad ec       	ldi	r26, 0xCD	; 205
     9be:	bc ec       	ldi	r27, 0xCC	; 204
     9c0:	0e 94 12 1b 	call	0x3624	; 0x3624 <__umulhisi3>
     9c4:	96 95       	lsr	r25
     9c6:	87 95       	ror	r24
     9c8:	96 95       	lsr	r25
     9ca:	87 95       	ror	r24
     9cc:	96 95       	lsr	r25
     9ce:	87 95       	ror	r24
     9d0:	bc 01       	movw	r22, r24
     9d2:	66 0f       	add	r22, r22
     9d4:	77 1f       	adc	r23, r23
     9d6:	9c 01       	movw	r18, r24
     9d8:	22 0f       	add	r18, r18
     9da:	33 1f       	adc	r19, r19
     9dc:	22 0f       	add	r18, r18
     9de:	33 1f       	adc	r19, r19
     9e0:	22 0f       	add	r18, r18
     9e2:	33 1f       	adc	r19, r19
     9e4:	26 0f       	add	r18, r22
     9e6:	37 1f       	adc	r19, r23
     9e8:	42 1b       	sub	r20, r18
     9ea:	53 0b       	sbc	r21, r19
     9ec:	34 2f       	mov	r19, r20
     9ee:	20 e1       	ldi	r18, 0x10	; 16
     9f0:	82 9f       	mul	r24, r18
     9f2:	30 0d       	add	r19, r0
     9f4:	11 24       	eor	r1, r1
     9f6:	83 2f       	mov	r24, r19
     9f8:	08 95       	ret

000009fa <FUNCgcd1>:
     9fa:	cf 92       	push	r12
     9fc:	df 92       	push	r13
     9fe:	ef 92       	push	r14
     a00:	ff 92       	push	r15
     a02:	cf 93       	push	r28
     a04:	df 93       	push	r29
     a06:	cd b7       	in	r28, 0x3d	; 61
     a08:	de b7       	in	r29, 0x3e	; 62
     a0a:	28 97       	sbiw	r28, 0x08	; 8
     a0c:	0f b6       	in	r0, 0x3f	; 63
     a0e:	f8 94       	cli
     a10:	de bf       	out	0x3e, r29	; 62
     a12:	0f be       	out	0x3f, r0	; 63
     a14:	cd bf       	out	0x3d, r28	; 61
     a16:	6b 01       	movw	r12, r22
     a18:	7c 01       	movw	r14, r24
     a1a:	69 83       	std	Y+1, r22	; 0x01
     a1c:	7a 83       	std	Y+2, r23	; 0x02
     a1e:	8b 83       	std	Y+3, r24	; 0x03
     a20:	9c 83       	std	Y+4, r25	; 0x04
     a22:	2d 83       	std	Y+5, r18	; 0x05
     a24:	3e 83       	std	Y+6, r19	; 0x06
     a26:	4f 83       	std	Y+7, r20	; 0x07
     a28:	58 87       	std	Y+8, r21	; 0x08
     a2a:	c2 16       	cp	r12, r18
     a2c:	d3 06       	cpc	r13, r19
     a2e:	e4 06       	cpc	r14, r20
     a30:	f5 06       	cpc	r15, r21
     a32:	3c f4       	brge	.+14     	; 0xa42 <FUNCgcd1+0x48>
     a34:	be 01       	movw	r22, r28
     a36:	6b 5f       	subi	r22, 0xFB	; 251
     a38:	7f 4f       	sbci	r23, 0xFF	; 255
     a3a:	ce 01       	movw	r24, r28
     a3c:	01 96       	adiw	r24, 0x01	; 1
     a3e:	0e 94 8f 01 	call	0x31e	; 0x31e <FUNCswap>
     a42:	8d 81       	ldd	r24, Y+5	; 0x05
     a44:	9e 81       	ldd	r25, Y+6	; 0x06
     a46:	af 81       	ldd	r26, Y+7	; 0x07
     a48:	b8 85       	ldd	r27, Y+8	; 0x08
     a4a:	89 2b       	or	r24, r25
     a4c:	8a 2b       	or	r24, r26
     a4e:	8b 2b       	or	r24, r27
     a50:	71 f4       	brne	.+28     	; 0xa6e <FUNCgcd1+0x74>
     a52:	69 81       	ldd	r22, Y+1	; 0x01
     a54:	7a 81       	ldd	r23, Y+2	; 0x02
     a56:	8b 81       	ldd	r24, Y+3	; 0x03
     a58:	9c 81       	ldd	r25, Y+4	; 0x04
     a5a:	20 e0       	ldi	r18, 0x00	; 0
     a5c:	30 e0       	ldi	r19, 0x00	; 0
     a5e:	a9 01       	movw	r20, r18
     a60:	0e 94 ed 1a 	call	0x35da	; 0x35da <__divmodsi4>
     a64:	61 15       	cp	r22, r1
     a66:	71 05       	cpc	r23, r1
     a68:	81 05       	cpc	r24, r1
     a6a:	91 05       	cpc	r25, r1
     a6c:	29 f4       	brne	.+10     	; 0xa78 <FUNCgcd1+0x7e>
     a6e:	6d 81       	ldd	r22, Y+5	; 0x05
     a70:	7e 81       	ldd	r23, Y+6	; 0x06
     a72:	8f 81       	ldd	r24, Y+7	; 0x07
     a74:	98 85       	ldd	r25, Y+8	; 0x08
     a76:	05 c0       	rjmp	.+10     	; 0xa82 <FUNCgcd1+0x88>
     a78:	6d 83       	std	Y+5, r22	; 0x05
     a7a:	7e 83       	std	Y+6, r23	; 0x06
     a7c:	8f 83       	std	Y+7, r24	; 0x07
     a7e:	98 87       	std	Y+8, r25	; 0x08
     a80:	f6 cf       	rjmp	.-20     	; 0xa6e <FUNCgcd1+0x74>
     a82:	28 96       	adiw	r28, 0x08	; 8
     a84:	0f b6       	in	r0, 0x3f	; 63
     a86:	f8 94       	cli
     a88:	de bf       	out	0x3e, r29	; 62
     a8a:	0f be       	out	0x3f, r0	; 63
     a8c:	cd bf       	out	0x3d, r28	; 61
     a8e:	df 91       	pop	r29
     a90:	cf 91       	pop	r28
     a92:	ff 90       	pop	r15
     a94:	ef 90       	pop	r14
     a96:	df 90       	pop	r13
     a98:	cf 90       	pop	r12
     a9a:	08 95       	ret

00000a9c <FUNCpincheck>:
     a9c:	90 e0       	ldi	r25, 0x00	; 0
     a9e:	02 c0       	rjmp	.+4      	; 0xaa4 <FUNCpincheck+0x8>
     aa0:	95 95       	asr	r25
     aa2:	87 95       	ror	r24
     aa4:	6a 95       	dec	r22
     aa6:	e2 f7       	brpl	.-8      	; 0xaa0 <FUNCpincheck+0x4>
     aa8:	81 70       	andi	r24, 0x01	; 1
     aaa:	08 95       	ret

00000aac <FUNCprint_binary>:
     aac:	9c 01       	movw	r18, r24
     aae:	21 50       	subi	r18, 0x01	; 1
     ab0:	31 09       	sbc	r19, r1
     ab2:	81 e0       	ldi	r24, 0x01	; 1
     ab4:	90 e0       	ldi	r25, 0x00	; 0
     ab6:	02 c0       	rjmp	.+4      	; 0xabc <FUNCprint_binary+0x10>
     ab8:	88 0f       	add	r24, r24
     aba:	99 1f       	adc	r25, r25
     abc:	2a 95       	dec	r18
     abe:	e2 f7       	brpl	.-8      	; 0xab8 <FUNCprint_binary+0xc>
     ac0:	00 97       	sbiw	r24, 0x00	; 0
     ac2:	b1 f0       	breq	.+44     	; 0xaf0 <FUNCprint_binary+0x44>
     ac4:	ea ee       	ldi	r30, 0xEA	; 234
     ac6:	f1 e0       	ldi	r31, 0x01	; 1
     ac8:	20 e0       	ldi	r18, 0x00	; 0
     aca:	30 e0       	ldi	r19, 0x00	; 0
     acc:	b0 e3       	ldi	r27, 0x30	; 48
     ace:	a1 e3       	ldi	r26, 0x31	; 49
     ad0:	ab 01       	movw	r20, r22
     ad2:	48 23       	and	r20, r24
     ad4:	59 23       	and	r21, r25
     ad6:	45 2b       	or	r20, r21
     ad8:	11 f0       	breq	.+4      	; 0xade <FUNCprint_binary+0x32>
     ada:	a0 83       	st	Z, r26
     adc:	01 c0       	rjmp	.+2      	; 0xae0 <FUNCprint_binary+0x34>
     ade:	b0 83       	st	Z, r27
     ae0:	96 95       	lsr	r25
     ae2:	87 95       	ror	r24
     ae4:	2f 5f       	subi	r18, 0xFF	; 255
     ae6:	3f 4f       	sbci	r19, 0xFF	; 255
     ae8:	31 96       	adiw	r30, 0x01	; 1
     aea:	00 97       	sbiw	r24, 0x00	; 0
     aec:	89 f7       	brne	.-30     	; 0xad0 <FUNCprint_binary+0x24>
     aee:	02 c0       	rjmp	.+4      	; 0xaf4 <FUNCprint_binary+0x48>
     af0:	20 e0       	ldi	r18, 0x00	; 0
     af2:	30 e0       	ldi	r19, 0x00	; 0
     af4:	f9 01       	movw	r30, r18
     af6:	e6 51       	subi	r30, 0x16	; 22
     af8:	fe 4f       	sbci	r31, 0xFE	; 254
     afa:	10 82       	st	Z, r1
     afc:	8a ee       	ldi	r24, 0xEA	; 234
     afe:	91 e0       	ldi	r25, 0x01	; 1
     b00:	08 95       	ret

00000b02 <FUNCdectohex>:
     b02:	ab 01       	movw	r20, r22
     b04:	bc 01       	movw	r22, r24
     b06:	10 92 ea 01 	sts	0x01EA, r1	; 0x8001ea <FUNCstr>
     b0a:	41 15       	cp	r20, r1
     b0c:	51 05       	cpc	r21, r1
     b0e:	61 05       	cpc	r22, r1
     b10:	71 05       	cpc	r23, r1
     b12:	09 f4       	brne	.+2      	; 0xb16 <FUNCdectohex+0x14>
     b14:	42 c0       	rjmp	.+132    	; 0xb9a <FUNCdectohex+0x98>
     b16:	21 e0       	ldi	r18, 0x01	; 1
     b18:	ef ef       	ldi	r30, 0xFF	; 255
     b1a:	e2 0f       	add	r30, r18
     b1c:	db 01       	movw	r26, r22
     b1e:	ca 01       	movw	r24, r20
     b20:	8f 70       	andi	r24, 0x0F	; 15
     b22:	99 27       	eor	r25, r25
     b24:	aa 27       	eor	r26, r26
     b26:	b0 78       	andi	r27, 0x80	; 128
     b28:	bb 23       	and	r27, r27
     b2a:	54 f4       	brge	.+20     	; 0xb40 <FUNCdectohex+0x3e>
     b2c:	01 97       	sbiw	r24, 0x01	; 1
     b2e:	a1 09       	sbc	r26, r1
     b30:	b1 09       	sbc	r27, r1
     b32:	80 6f       	ori	r24, 0xF0	; 240
     b34:	9f 6f       	ori	r25, 0xFF	; 255
     b36:	af 6f       	ori	r26, 0xFF	; 255
     b38:	bf 6f       	ori	r27, 0xFF	; 255
     b3a:	01 96       	adiw	r24, 0x01	; 1
     b3c:	a1 1d       	adc	r26, r1
     b3e:	b1 1d       	adc	r27, r1
     b40:	8a 30       	cpi	r24, 0x0A	; 10
     b42:	91 05       	cpc	r25, r1
     b44:	a1 05       	cpc	r26, r1
     b46:	b1 05       	cpc	r27, r1
     b48:	34 f4       	brge	.+12     	; 0xb56 <FUNCdectohex+0x54>
     b4a:	f0 e0       	ldi	r31, 0x00	; 0
     b4c:	e6 51       	subi	r30, 0x16	; 22
     b4e:	fe 4f       	sbci	r31, 0xFE	; 254
     b50:	80 5d       	subi	r24, 0xD0	; 208
     b52:	80 83       	st	Z, r24
     b54:	05 c0       	rjmp	.+10     	; 0xb60 <FUNCdectohex+0x5e>
     b56:	f0 e0       	ldi	r31, 0x00	; 0
     b58:	e6 51       	subi	r30, 0x16	; 22
     b5a:	fe 4f       	sbci	r31, 0xFE	; 254
     b5c:	89 5c       	subi	r24, 0xC9	; 201
     b5e:	80 83       	st	Z, r24
     b60:	e2 2f       	mov	r30, r18
     b62:	f0 e0       	ldi	r31, 0x00	; 0
     b64:	e6 51       	subi	r30, 0x16	; 22
     b66:	fe 4f       	sbci	r31, 0xFE	; 254
     b68:	10 82       	st	Z, r1
     b6a:	db 01       	movw	r26, r22
     b6c:	ca 01       	movw	r24, r20
     b6e:	77 23       	and	r23, r23
     b70:	1c f4       	brge	.+6      	; 0xb78 <FUNCdectohex+0x76>
     b72:	0f 96       	adiw	r24, 0x0f	; 15
     b74:	a1 1d       	adc	r26, r1
     b76:	b1 1d       	adc	r27, r1
     b78:	ac 01       	movw	r20, r24
     b7a:	bd 01       	movw	r22, r26
     b7c:	68 94       	set
     b7e:	13 f8       	bld	r1, 3
     b80:	75 95       	asr	r23
     b82:	67 95       	ror	r22
     b84:	57 95       	ror	r21
     b86:	47 95       	ror	r20
     b88:	16 94       	lsr	r1
     b8a:	d1 f7       	brne	.-12     	; 0xb80 <FUNCdectohex+0x7e>
     b8c:	2f 5f       	subi	r18, 0xFF	; 255
     b8e:	41 15       	cp	r20, r1
     b90:	51 05       	cpc	r21, r1
     b92:	61 05       	cpc	r22, r1
     b94:	71 05       	cpc	r23, r1
     b96:	09 f0       	breq	.+2      	; 0xb9a <FUNCdectohex+0x98>
     b98:	bf cf       	rjmp	.-130    	; 0xb18 <FUNCdectohex+0x16>
     b9a:	8a ee       	ldi	r24, 0xEA	; 234
     b9c:	91 e0       	ldi	r25, 0x01	; 1
     b9e:	0e 94 b2 03 	call	0x764	; 0x764 <Reverse>
     ba2:	8a ee       	ldi	r24, 0xEA	; 234
     ba4:	91 e0       	ldi	r25, 0x01	; 1
     ba6:	08 95       	ret

00000ba8 <FUNCReadHLByte>:
     ba8:	28 2f       	mov	r18, r24
     baa:	30 e0       	ldi	r19, 0x00	; 0
     bac:	32 2f       	mov	r19, r18
     bae:	22 27       	eor	r18, r18
     bb0:	a9 01       	movw	r20, r18
     bb2:	49 2b       	or	r20, r25
     bb4:	ca 01       	movw	r24, r20
     bb6:	08 95       	ret

00000bb8 <FUNCReadLHByte>:
     bb8:	29 2f       	mov	r18, r25
     bba:	30 e0       	ldi	r19, 0x00	; 0
     bbc:	32 2f       	mov	r19, r18
     bbe:	22 27       	eor	r18, r18
     bc0:	a9 01       	movw	r20, r18
     bc2:	48 2b       	or	r20, r24
     bc4:	ca 01       	movw	r24, r20
     bc6:	08 95       	ret

00000bc8 <FUNCWriteHLByte>:
     bc8:	28 2f       	mov	r18, r24
     bca:	89 2f       	mov	r24, r25
     bcc:	92 2f       	mov	r25, r18
     bce:	08 95       	ret

00000bd0 <FUNCWriteLHByte>:
     bd0:	08 95       	ret

00000bd2 <FUNCSwapByte>:
     bd2:	98 27       	eor	r25, r24
     bd4:	89 27       	eor	r24, r25
     bd6:	98 27       	eor	r25, r24
     bd8:	08 95       	ret

00000bda <FUNCmayia>:
     bda:	ff 92       	push	r15
     bdc:	0f 93       	push	r16
     bde:	1f 93       	push	r17
     be0:	cf 93       	push	r28
     be2:	df 93       	push	r29
     be4:	8c 01       	movw	r16, r24
     be6:	eb 01       	movw	r28, r22
     be8:	f4 2e       	mov	r15, r20
     bea:	64 2f       	mov	r22, r20
     bec:	70 e0       	ldi	r23, 0x00	; 0
     bee:	80 e0       	ldi	r24, 0x00	; 0
     bf0:	90 e0       	ldi	r25, 0x00	; 0
     bf2:	0e 94 b3 17 	call	0x2f66	; 0x2f66 <__floatunsisf>
     bf6:	9b 01       	movw	r18, r22
     bf8:	ac 01       	movw	r20, r24
     bfa:	60 e0       	ldi	r22, 0x00	; 0
     bfc:	70 e0       	ldi	r23, 0x00	; 0
     bfe:	80 e0       	ldi	r24, 0x00	; 0
     c00:	90 e4       	ldi	r25, 0x40	; 64
     c02:	0e 94 d2 18 	call	0x31a4	; 0x31a4 <pow>
     c06:	20 e0       	ldi	r18, 0x00	; 0
     c08:	30 e0       	ldi	r19, 0x00	; 0
     c0a:	40 e8       	ldi	r20, 0x80	; 128
     c0c:	5f e3       	ldi	r21, 0x3F	; 63
     c0e:	0e 94 0b 17 	call	0x2e16	; 0x2e16 <__subsf3>
     c12:	0e 94 84 17 	call	0x2f08	; 0x2f08 <__fixunssfsi>
     c16:	9e 01       	movw	r18, r28
     c18:	26 23       	and	r18, r22
     c1a:	37 23       	and	r19, r23
     c1c:	60 23       	and	r22, r16
     c1e:	71 23       	and	r23, r17
     c20:	cb 01       	movw	r24, r22
     c22:	82 27       	eor	r24, r18
     c24:	93 27       	eor	r25, r19
     c26:	28 23       	and	r18, r24
     c28:	39 23       	and	r19, r25
     c2a:	02 c0       	rjmp	.+4      	; 0xc30 <FUNCmayia+0x56>
     c2c:	22 0f       	add	r18, r18
     c2e:	33 1f       	adc	r19, r19
     c30:	fa 94       	dec	r15
     c32:	e2 f7       	brpl	.-8      	; 0xc2c <FUNCmayia+0x52>
     c34:	82 2b       	or	r24, r18
     c36:	93 2b       	or	r25, r19
     c38:	df 91       	pop	r29
     c3a:	cf 91       	pop	r28
     c3c:	1f 91       	pop	r17
     c3e:	0f 91       	pop	r16
     c40:	ff 90       	pop	r15
     c42:	08 95       	ret

00000c44 <FUNCprint>:
     c44:	cf 93       	push	r28
     c46:	df 93       	push	r29
     c48:	cd b7       	in	r28, 0x3d	; 61
     c4a:	de b7       	in	r29, 0x3e	; 62
     c4c:	9e 01       	movw	r18, r28
     c4e:	2b 5f       	subi	r18, 0xFB	; 251
     c50:	3f 4f       	sbci	r19, 0xFF	; 255
     c52:	f9 01       	movw	r30, r18
     c54:	41 91       	ld	r20, Z+
     c56:	51 91       	ld	r21, Z+
     c58:	9f 01       	movw	r18, r30
     c5a:	6f e5       	ldi	r22, 0x5F	; 95
     c5c:	70 e0       	ldi	r23, 0x00	; 0
     c5e:	8a ee       	ldi	r24, 0xEA	; 234
     c60:	91 e0       	ldi	r25, 0x01	; 1
     c62:	0e 94 62 1b 	call	0x36c4	; 0x36c4 <vsnprintf>
     c66:	99 23       	and	r25, r25
     c68:	1c f0       	brlt	.+6      	; 0xc70 <FUNCprint+0x2c>
     c6a:	8a ee       	ldi	r24, 0xEA	; 234
     c6c:	91 e0       	ldi	r25, 0x01	; 1
     c6e:	02 c0       	rjmp	.+4      	; 0xc74 <FUNCprint+0x30>
     c70:	80 e0       	ldi	r24, 0x00	; 0
     c72:	90 e0       	ldi	r25, 0x00	; 0
     c74:	df 91       	pop	r29
     c76:	cf 91       	pop	r28
     c78:	08 95       	ret

00000c7a <FUNCenable>:
     c7a:	fc 01       	movw	r30, r24
     c7c:	10 92 49 02 	sts	0x0249, r1	; 0x800249 <FUNCstr+0x5f>
     c80:	87 e8       	ldi	r24, 0x87	; 135
     c82:	93 e0       	ldi	r25, 0x03	; 3
     c84:	91 83       	std	Z+1, r25	; 0x01
     c86:	80 83       	st	Z, r24
     c88:	82 eb       	ldi	r24, 0xB2	; 178
     c8a:	93 e0       	ldi	r25, 0x03	; 3
     c8c:	93 83       	std	Z+3, r25	; 0x03
     c8e:	82 83       	std	Z+2, r24	; 0x02
     c90:	8d ee       	ldi	r24, 0xED	; 237
     c92:	95 e0       	ldi	r25, 0x05	; 5
     c94:	95 83       	std	Z+5, r25	; 0x05
     c96:	84 83       	std	Z+4, r24	; 0x04
     c98:	8f e8       	ldi	r24, 0x8F	; 143
     c9a:	91 e0       	ldi	r25, 0x01	; 1
     c9c:	97 83       	std	Z+7, r25	; 0x07
     c9e:	86 83       	std	Z+6, r24	; 0x06
     ca0:	80 eb       	ldi	r24, 0xB0	; 176
     ca2:	91 e0       	ldi	r25, 0x01	; 1
     ca4:	91 87       	std	Z+9, r25	; 0x09
     ca6:	80 87       	std	Z+8, r24	; 0x08
     ca8:	8e eb       	ldi	r24, 0xBE	; 190
     caa:	91 e0       	ldi	r25, 0x01	; 1
     cac:	93 87       	std	Z+11, r25	; 0x0b
     cae:	82 87       	std	Z+10, r24	; 0x0a
     cb0:	80 ee       	ldi	r24, 0xE0	; 224
     cb2:	91 e0       	ldi	r25, 0x01	; 1
     cb4:	95 87       	std	Z+13, r25	; 0x0d
     cb6:	84 87       	std	Z+12, r24	; 0x0c
     cb8:	8c e2       	ldi	r24, 0x2C	; 44
     cba:	94 e0       	ldi	r25, 0x04	; 4
     cbc:	97 87       	std	Z+15, r25	; 0x0f
     cbe:	86 87       	std	Z+14, r24	; 0x0e
     cc0:	86 e6       	ldi	r24, 0x66	; 102
     cc2:	94 e0       	ldi	r25, 0x04	; 4
     cc4:	91 8b       	std	Z+17, r25	; 0x11
     cc6:	80 8b       	std	Z+16, r24	; 0x10
     cc8:	80 ed       	ldi	r24, 0xD0	; 208
     cca:	93 e0       	ldi	r25, 0x03	; 3
     ccc:	93 8b       	std	Z+19, r25	; 0x13
     cce:	82 8b       	std	Z+18, r24	; 0x12
     cd0:	86 e9       	ldi	r24, 0x96	; 150
     cd2:	93 e0       	ldi	r25, 0x03	; 3
     cd4:	95 8b       	std	Z+21, r25	; 0x15
     cd6:	84 8b       	std	Z+20, r24	; 0x14
     cd8:	86 e8       	ldi	r24, 0x86	; 134
     cda:	92 e0       	ldi	r25, 0x02	; 2
     cdc:	97 8b       	std	Z+23, r25	; 0x17
     cde:	86 8b       	std	Z+22, r24	; 0x16
     ce0:	8b e8       	ldi	r24, 0x8B	; 139
     ce2:	92 e0       	ldi	r25, 0x02	; 2
     ce4:	91 8f       	std	Z+25, r25	; 0x19
     ce6:	80 8f       	std	Z+24, r24	; 0x18
     ce8:	8a e9       	ldi	r24, 0x9A	; 154
     cea:	92 e0       	ldi	r25, 0x02	; 2
     cec:	93 8f       	std	Z+27, r25	; 0x1b
     cee:	82 8f       	std	Z+26, r24	; 0x1a
     cf0:	8e eb       	ldi	r24, 0xBE	; 190
     cf2:	92 e0       	ldi	r25, 0x02	; 2
     cf4:	95 8f       	std	Z+29, r25	; 0x1d
     cf6:	84 8f       	std	Z+28, r24	; 0x1c
     cf8:	80 ec       	ldi	r24, 0xC0	; 192
     cfa:	92 e0       	ldi	r25, 0x02	; 2
     cfc:	97 8f       	std	Z+31, r25	; 0x1f
     cfe:	86 8f       	std	Z+30, r24	; 0x1e
     d00:	8a ec       	ldi	r24, 0xCA	; 202
     d02:	92 e0       	ldi	r25, 0x02	; 2
     d04:	91 a3       	std	Z+33, r25	; 0x21
     d06:	80 a3       	std	Z+32, r24	; 0x20
     d08:	87 ed       	ldi	r24, 0xD7	; 215
     d0a:	92 e0       	ldi	r25, 0x02	; 2
     d0c:	93 a3       	std	Z+35, r25	; 0x23
     d0e:	82 a3       	std	Z+34, r24	; 0x22
     d10:	83 ee       	ldi	r24, 0xE3	; 227
     d12:	92 e0       	ldi	r25, 0x02	; 2
     d14:	95 a3       	std	Z+37, r25	; 0x25
     d16:	84 a3       	std	Z+36, r24	; 0x24
     d18:	8b ef       	ldi	r24, 0xFB	; 251
     d1a:	92 e0       	ldi	r25, 0x02	; 2
     d1c:	97 a3       	std	Z+39, r25	; 0x27
     d1e:	86 a3       	std	Z+38, r24	; 0x26
     d20:	8e e0       	ldi	r24, 0x0E	; 14
     d22:	93 e0       	ldi	r25, 0x03	; 3
     d24:	91 a7       	std	Z+41, r25	; 0x29
     d26:	80 a7       	std	Z+40, r24	; 0x28
     d28:	89 e1       	ldi	r24, 0x19	; 25
     d2a:	93 e0       	ldi	r25, 0x03	; 3
     d2c:	93 a7       	std	Z+43, r25	; 0x2b
     d2e:	82 a7       	std	Z+42, r24	; 0x2a
     d30:	86 e4       	ldi	r24, 0x46	; 70
     d32:	93 e0       	ldi	r25, 0x03	; 3
     d34:	95 a7       	std	Z+45, r25	; 0x2d
     d36:	84 a7       	std	Z+44, r24	; 0x2c
     d38:	81 ed       	ldi	r24, 0xD1	; 209
     d3a:	94 e0       	ldi	r25, 0x04	; 4
     d3c:	97 a7       	std	Z+47, r25	; 0x2f
     d3e:	86 a7       	std	Z+46, r24	; 0x2e
     d40:	8c ed       	ldi	r24, 0xDC	; 220
     d42:	94 e0       	ldi	r25, 0x04	; 4
     d44:	91 ab       	std	Z+49, r25	; 0x31
     d46:	80 ab       	std	Z+48, r24	; 0x30
     d48:	8d ef       	ldi	r24, 0xFD	; 253
     d4a:	94 e0       	ldi	r25, 0x04	; 4
     d4c:	93 ab       	std	Z+51, r25	; 0x33
     d4e:	82 ab       	std	Z+50, r24	; 0x32
     d50:	8e e4       	ldi	r24, 0x4E	; 78
     d52:	95 e0       	ldi	r25, 0x05	; 5
     d54:	95 ab       	std	Z+53, r25	; 0x35
     d56:	84 ab       	std	Z+52, r24	; 0x34
     d58:	86 e5       	ldi	r24, 0x56	; 86
     d5a:	95 e0       	ldi	r25, 0x05	; 5
     d5c:	97 ab       	std	Z+55, r25	; 0x37
     d5e:	86 ab       	std	Z+54, r24	; 0x36
     d60:	85 e3       	ldi	r24, 0x35	; 53
     d62:	97 e0       	ldi	r25, 0x07	; 7
     d64:	91 af       	std	Z+57, r25	; 0x39
     d66:	80 af       	std	Z+56, r24	; 0x38
     d68:	81 e8       	ldi	r24, 0x81	; 129
     d6a:	95 e0       	ldi	r25, 0x05	; 5
     d6c:	93 af       	std	Z+59, r25	; 0x3b
     d6e:	82 af       	std	Z+58, r24	; 0x3a
     d70:	84 ed       	ldi	r24, 0xD4	; 212
     d72:	95 e0       	ldi	r25, 0x05	; 5
     d74:	95 af       	std	Z+61, r25	; 0x3d
     d76:	84 af       	std	Z+60, r24	; 0x3c
     d78:	8c ed       	ldi	r24, 0xDC	; 220
     d7a:	95 e0       	ldi	r25, 0x05	; 5
     d7c:	97 af       	std	Z+63, r25	; 0x3f
     d7e:	86 af       	std	Z+62, r24	; 0x3e
     d80:	df 01       	movw	r26, r30
     d82:	a0 5c       	subi	r26, 0xC0	; 192
     d84:	bf 4f       	sbci	r27, 0xFF	; 255
     d86:	84 ee       	ldi	r24, 0xE4	; 228
     d88:	95 e0       	ldi	r25, 0x05	; 5
     d8a:	11 96       	adiw	r26, 0x01	; 1
     d8c:	9c 93       	st	X, r25
     d8e:	8e 93       	st	-X, r24
     d90:	12 96       	adiw	r26, 0x02	; 2
     d92:	88 ee       	ldi	r24, 0xE8	; 232
     d94:	95 e0       	ldi	r25, 0x05	; 5
     d96:	11 96       	adiw	r26, 0x01	; 1
     d98:	9c 93       	st	X, r25
     d9a:	8e 93       	st	-X, r24
     d9c:	12 96       	adiw	r26, 0x02	; 2
     d9e:	89 ee       	ldi	r24, 0xE9	; 233
     da0:	95 e0       	ldi	r25, 0x05	; 5
     da2:	11 96       	adiw	r26, 0x01	; 1
     da4:	9c 93       	st	X, r25
     da6:	8e 93       	st	-X, r24
     da8:	12 96       	adiw	r26, 0x02	; 2
     daa:	82 e2       	ldi	r24, 0x22	; 34
     dac:	96 e0       	ldi	r25, 0x06	; 6
     dae:	8d 93       	st	X+, r24
     db0:	9c 93       	st	X, r25
     db2:	cf 01       	movw	r24, r30
     db4:	08 95       	ret

00000db6 <FUNCintinvstr>:
// intinvstr
uint8_t FUNCintinvstr(int32_t num, char* res, uint8_t n_digit)
{
     db6:	8f 92       	push	r8
     db8:	9f 92       	push	r9
     dba:	af 92       	push	r10
     dbc:	bf 92       	push	r11
     dbe:	ef 92       	push	r14
     dc0:	ff 92       	push	r15
     dc2:	0f 93       	push	r16
     dc4:	1f 93       	push	r17
     dc6:	cf 93       	push	r28
     dc8:	df 93       	push	r29
     dca:	8a 01       	movw	r16, r20
     dcc:	d2 2f       	mov	r29, r18
	uint8_t k = 0;
	for(res[k++] = (char)((num % 10) + '0'); (num /= 10) > 0 ; res[k++] = (char)((num % 10) + '0'));
     dce:	2a e0       	ldi	r18, 0x0A	; 10
     dd0:	30 e0       	ldi	r19, 0x00	; 0
     dd2:	40 e0       	ldi	r20, 0x00	; 0
     dd4:	50 e0       	ldi	r21, 0x00	; 0
     dd6:	0e 94 ed 1a 	call	0x35da	; 0x35da <__divmodsi4>
     dda:	60 5d       	subi	r22, 0xD0	; 208
     ddc:	f8 01       	movw	r30, r16
     dde:	60 83       	st	Z, r22
     de0:	62 2f       	mov	r22, r18
     de2:	73 2f       	mov	r23, r19
     de4:	84 2f       	mov	r24, r20
     de6:	95 2f       	mov	r25, r21
     de8:	16 16       	cp	r1, r22
     dea:	17 06       	cpc	r1, r23
     dec:	18 06       	cpc	r1, r24
     dee:	19 06       	cpc	r1, r25
     df0:	fc f4       	brge	.+62     	; 0xe30 <FUNCintinvstr+0x7a>
     df2:	21 e0       	ldi	r18, 0x01	; 1
     df4:	0f 2e       	mov	r0, r31
     df6:	fa e0       	ldi	r31, 0x0A	; 10
     df8:	8f 2e       	mov	r8, r31
     dfa:	91 2c       	mov	r9, r1
     dfc:	a1 2c       	mov	r10, r1
     dfe:	b1 2c       	mov	r11, r1
     e00:	f0 2d       	mov	r31, r0
     e02:	c1 e0       	ldi	r28, 0x01	; 1
     e04:	c2 0f       	add	r28, r18
     e06:	78 01       	movw	r14, r16
     e08:	e2 0e       	add	r14, r18
     e0a:	f1 1c       	adc	r15, r1
     e0c:	a5 01       	movw	r20, r10
     e0e:	94 01       	movw	r18, r8
     e10:	0e 94 ed 1a 	call	0x35da	; 0x35da <__divmodsi4>
     e14:	60 5d       	subi	r22, 0xD0	; 208
     e16:	f7 01       	movw	r30, r14
     e18:	60 83       	st	Z, r22
     e1a:	62 2f       	mov	r22, r18
     e1c:	73 2f       	mov	r23, r19
     e1e:	84 2f       	mov	r24, r20
     e20:	95 2f       	mov	r25, r21
     e22:	2c 2f       	mov	r18, r28
     e24:	16 16       	cp	r1, r22
     e26:	17 06       	cpc	r1, r23
     e28:	18 06       	cpc	r1, r24
     e2a:	19 06       	cpc	r1, r25
     e2c:	54 f3       	brlt	.-44     	; 0xe02 <FUNCintinvstr+0x4c>
     e2e:	01 c0       	rjmp	.+2      	; 0xe32 <FUNCintinvstr+0x7c>
     e30:	c1 e0       	ldi	r28, 0x01	; 1
	for( ; k < n_digit ; res[k++] = '0');
     e32:	cd 17       	cp	r28, r29
     e34:	48 f4       	brcc	.+18     	; 0xe48 <FUNCintinvstr+0x92>
     e36:	80 e3       	ldi	r24, 0x30	; 48
     e38:	f8 01       	movw	r30, r16
     e3a:	ec 0f       	add	r30, r28
     e3c:	f1 1d       	adc	r31, r1
     e3e:	80 83       	st	Z, r24
     e40:	cf 5f       	subi	r28, 0xFF	; 255
     e42:	dc 13       	cpse	r29, r28
     e44:	f9 cf       	rjmp	.-14     	; 0xe38 <FUNCintinvstr+0x82>
     e46:	01 c0       	rjmp	.+2      	; 0xe4a <FUNCintinvstr+0x94>
     e48:	dc 2f       	mov	r29, r28
	res[k] = '\0';
     e4a:	f8 01       	movw	r30, r16
     e4c:	ed 0f       	add	r30, r29
     e4e:	f1 1d       	adc	r31, r1
     e50:	10 82       	st	Z, r1
	return k;
}
     e52:	8d 2f       	mov	r24, r29
     e54:	df 91       	pop	r29
     e56:	cf 91       	pop	r28
     e58:	1f 91       	pop	r17
     e5a:	0f 91       	pop	r16
     e5c:	ff 90       	pop	r15
     e5e:	ef 90       	pop	r14
     e60:	bf 90       	pop	r11
     e62:	af 90       	pop	r10
     e64:	9f 90       	pop	r9
     e66:	8f 90       	pop	r8
     e68:	08 95       	ret

00000e6a <FUNCftoa>:
// ftoa
char* FUNCftoa(double num, char* res, uint8_t afterpoint)
{
     e6a:	8f 92       	push	r8
     e6c:	9f 92       	push	r9
     e6e:	af 92       	push	r10
     e70:	bf 92       	push	r11
     e72:	cf 92       	push	r12
     e74:	df 92       	push	r13
     e76:	ef 92       	push	r14
     e78:	ff 92       	push	r15
     e7a:	0f 93       	push	r16
     e7c:	1f 93       	push	r17
     e7e:	cf 93       	push	r28
     e80:	df 93       	push	r29
     e82:	6b 01       	movw	r12, r22
     e84:	7c 01       	movw	r14, r24
     e86:	ea 01       	movw	r28, r20
     e88:	02 2f       	mov	r16, r18
	uint32_t ipart;
	double n, fpart;
	uint8_t k = 0;
	int8_t sign;
	if (num < 0){
     e8a:	20 e0       	ldi	r18, 0x00	; 0
     e8c:	30 e0       	ldi	r19, 0x00	; 0
     e8e:	a9 01       	movw	r20, r18
     e90:	0e 94 78 17 	call	0x2ef0	; 0x2ef0 <__cmpsf2>
     e94:	88 23       	and	r24, r24
     e96:	0c f0       	brlt	.+2      	; 0xe9a <FUNCftoa+0x30>
     e98:	6c c0       	rjmp	.+216    	; 0xf72 <FUNCftoa+0x108>
		n = -num; sign = -1;
     e9a:	f7 fa       	bst	r15, 7
     e9c:	f0 94       	com	r15
     e9e:	f7 f8       	bld	r15, 7
     ea0:	f0 94       	com	r15
	}else{
		n = num; sign = 1;
	}
	ipart = (uint32_t) n; fpart = n - (double)ipart;
     ea2:	c7 01       	movw	r24, r14
     ea4:	b6 01       	movw	r22, r12
     ea6:	0e 94 84 17 	call	0x2f08	; 0x2f08 <__fixunssfsi>
     eaa:	4b 01       	movw	r8, r22
     eac:	5c 01       	movw	r10, r24
     eae:	0e 94 b3 17 	call	0x2f66	; 0x2f66 <__floatunsisf>
     eb2:	9b 01       	movw	r18, r22
     eb4:	ac 01       	movw	r20, r24
     eb6:	c7 01       	movw	r24, r14
     eb8:	b6 01       	movw	r22, r12
     eba:	0e 94 0b 17 	call	0x2e16	; 0x2e16 <__subsf3>
     ebe:	6b 01       	movw	r12, r22
     ec0:	7c 01       	movw	r14, r24
	k = FUNCintinvstr((int)ipart, res, 1);
     ec2:	b4 01       	movw	r22, r8
     ec4:	99 0c       	add	r9, r9
     ec6:	88 0b       	sbc	r24, r24
     ec8:	99 0b       	sbc	r25, r25
     eca:	21 e0       	ldi	r18, 0x01	; 1
     ecc:	ae 01       	movw	r20, r28
     ece:	0e 94 db 06 	call	0xdb6	; 0xdb6 <FUNCintinvstr>
	if (sign < 0) res[k++] = '-'; else res[k++] = ' ';
     ed2:	11 e0       	ldi	r17, 0x01	; 1
     ed4:	18 0f       	add	r17, r24
     ed6:	fe 01       	movw	r30, r28
     ed8:	e8 0f       	add	r30, r24
     eda:	f1 1d       	adc	r31, r1
     edc:	8d e2       	ldi	r24, 0x2D	; 45
     ede:	80 83       	st	Z, r24
	res[k] = '\0';
     ee0:	5e 01       	movw	r10, r28
     ee2:	a1 0e       	add	r10, r17
     ee4:	b1 1c       	adc	r11, r1
     ee6:	f5 01       	movw	r30, r10
     ee8:	10 82       	st	Z, r1
	Reverse(res);
     eea:	ce 01       	movw	r24, r28
     eec:	0e 94 b2 03 	call	0x764	; 0x764 <Reverse>
	if (afterpoint > 0 && afterpoint < (MAXafterpoint + 1)){ // it is only a 8 bit mcu
     ef0:	8f ef       	ldi	r24, 0xFF	; 255
     ef2:	80 0f       	add	r24, r16
     ef4:	86 30       	cpi	r24, 0x06	; 6
     ef6:	18 f5       	brcc	.+70     	; 0xf3e <FUNCftoa+0xd4>
		res[k++] = '.';
     ef8:	8e e2       	ldi	r24, 0x2E	; 46
     efa:	f5 01       	movw	r30, r10
     efc:	80 83       	st	Z, r24
		FUNCintinvstr( (int32_t)(fpart * pow(10, afterpoint)), (res + k), afterpoint );
     efe:	1f 5f       	subi	r17, 0xFF	; 255
     f00:	5e 01       	movw	r10, r28
     f02:	a1 0e       	add	r10, r17
     f04:	b1 1c       	adc	r11, r1
     f06:	60 2f       	mov	r22, r16
     f08:	70 e0       	ldi	r23, 0x00	; 0
     f0a:	80 e0       	ldi	r24, 0x00	; 0
     f0c:	90 e0       	ldi	r25, 0x00	; 0
     f0e:	0e 94 b3 17 	call	0x2f66	; 0x2f66 <__floatunsisf>
     f12:	9b 01       	movw	r18, r22
     f14:	ac 01       	movw	r20, r24
     f16:	60 e0       	ldi	r22, 0x00	; 0
     f18:	70 e0       	ldi	r23, 0x00	; 0
     f1a:	80 e2       	ldi	r24, 0x20	; 32
     f1c:	91 e4       	ldi	r25, 0x41	; 65
     f1e:	0e 94 d2 18 	call	0x31a4	; 0x31a4 <pow>
     f22:	a7 01       	movw	r20, r14
     f24:	96 01       	movw	r18, r12
     f26:	0e 94 65 18 	call	0x30ca	; 0x30ca <__mulsf3>
     f2a:	0e 94 7d 17 	call	0x2efa	; 0x2efa <__fixsfsi>
     f2e:	20 2f       	mov	r18, r16
     f30:	a5 01       	movw	r20, r10
     f32:	0e 94 db 06 	call	0xdb6	; 0xdb6 <FUNCintinvstr>
		Reverse(res + k);
     f36:	c5 01       	movw	r24, r10
     f38:	0e 94 b2 03 	call	0x764	; 0x764 <Reverse>
     f3c:	3a c0       	rjmp	.+116    	; 0xfb2 <FUNCftoa+0x148>
	}else{
		res[k++] = '.';
     f3e:	8e e2       	ldi	r24, 0x2E	; 46
     f40:	f5 01       	movw	r30, r10
     f42:	80 83       	st	Z, r24
		FUNCintinvstr( (int32_t)(fpart * pow(10, DEFAULTafterpoint)), (res + k), DEFAULTafterpoint );
     f44:	1f 5f       	subi	r17, 0xFF	; 255
     f46:	ce 01       	movw	r24, r28
     f48:	81 0f       	add	r24, r17
     f4a:	91 1d       	adc	r25, r1
     f4c:	8c 01       	movw	r16, r24
     f4e:	20 e0       	ldi	r18, 0x00	; 0
     f50:	30 e0       	ldi	r19, 0x00	; 0
     f52:	48 ec       	ldi	r20, 0xC8	; 200
     f54:	52 e4       	ldi	r21, 0x42	; 66
     f56:	c7 01       	movw	r24, r14
     f58:	b6 01       	movw	r22, r12
     f5a:	0e 94 65 18 	call	0x30ca	; 0x30ca <__mulsf3>
     f5e:	0e 94 7d 17 	call	0x2efa	; 0x2efa <__fixsfsi>
     f62:	22 e0       	ldi	r18, 0x02	; 2
     f64:	a8 01       	movw	r20, r16
     f66:	0e 94 db 06 	call	0xdb6	; 0xdb6 <FUNCintinvstr>
		Reverse(res + k);
     f6a:	c8 01       	movw	r24, r16
     f6c:	0e 94 b2 03 	call	0x764	; 0x764 <Reverse>
	}
	return res;
     f70:	20 c0       	rjmp	.+64     	; 0xfb2 <FUNCftoa+0x148>
	if (num < 0){
		n = -num; sign = -1;
	}else{
		n = num; sign = 1;
	}
	ipart = (uint32_t) n; fpart = n - (double)ipart;
     f72:	c7 01       	movw	r24, r14
     f74:	b6 01       	movw	r22, r12
     f76:	0e 94 84 17 	call	0x2f08	; 0x2f08 <__fixunssfsi>
     f7a:	4b 01       	movw	r8, r22
     f7c:	5c 01       	movw	r10, r24
     f7e:	0e 94 b3 17 	call	0x2f66	; 0x2f66 <__floatunsisf>
     f82:	9b 01       	movw	r18, r22
     f84:	ac 01       	movw	r20, r24
     f86:	c7 01       	movw	r24, r14
     f88:	b6 01       	movw	r22, r12
     f8a:	0e 94 0b 17 	call	0x2e16	; 0x2e16 <__subsf3>
     f8e:	6b 01       	movw	r12, r22
     f90:	7c 01       	movw	r14, r24
	k = FUNCintinvstr((int)ipart, res, 1);
     f92:	b4 01       	movw	r22, r8
     f94:	99 0c       	add	r9, r9
     f96:	88 0b       	sbc	r24, r24
     f98:	99 0b       	sbc	r25, r25
     f9a:	21 e0       	ldi	r18, 0x01	; 1
     f9c:	ae 01       	movw	r20, r28
     f9e:	0e 94 db 06 	call	0xdb6	; 0xdb6 <FUNCintinvstr>
	if (sign < 0) res[k++] = '-'; else res[k++] = ' ';
     fa2:	11 e0       	ldi	r17, 0x01	; 1
     fa4:	18 0f       	add	r17, r24
     fa6:	fe 01       	movw	r30, r28
     fa8:	e8 0f       	add	r30, r24
     faa:	f1 1d       	adc	r31, r1
     fac:	80 e2       	ldi	r24, 0x20	; 32
     fae:	80 83       	st	Z, r24
     fb0:	97 cf       	rjmp	.-210    	; 0xee0 <FUNCftoa+0x76>
		res[k++] = '.';
		FUNCintinvstr( (int32_t)(fpart * pow(10, DEFAULTafterpoint)), (res + k), DEFAULTafterpoint );
		Reverse(res + k);
	}
	return res;
}
     fb2:	ce 01       	movw	r24, r28
     fb4:	df 91       	pop	r29
     fb6:	cf 91       	pop	r28
     fb8:	1f 91       	pop	r17
     fba:	0f 91       	pop	r16
     fbc:	ff 90       	pop	r15
     fbe:	ef 90       	pop	r14
     fc0:	df 90       	pop	r13
     fc2:	cf 90       	pop	r12
     fc4:	bf 90       	pop	r11
     fc6:	af 90       	pop	r10
     fc8:	9f 90       	pop	r9
     fca:	8f 90       	pop	r8
     fcc:	08 95       	ret

00000fce <KEYPAD_data>:
		}
	}
}
// read
keypadata KEYPAD_data(void)
{
     fce:	cf 93       	push	r28
     fd0:	df 93       	push	r29
     fd2:	00 d0       	rcall	.+0      	; 0xfd4 <KEYPAD_data+0x6>
     fd4:	00 d0       	rcall	.+0      	; 0xfd6 <KEYPAD_data+0x8>
     fd6:	1f 92       	push	r1
     fd8:	cd b7       	in	r28, 0x3d	; 61
     fda:	de b7       	in	r29, 0x3e	; 62
	return data;
     fdc:	85 e0       	ldi	r24, 0x05	; 5
     fde:	ef e0       	ldi	r30, 0x0F	; 15
     fe0:	f3 e0       	ldi	r31, 0x03	; 3
     fe2:	de 01       	movw	r26, r28
     fe4:	11 96       	adiw	r26, 0x01	; 1
     fe6:	01 90       	ld	r0, Z+
     fe8:	0d 92       	st	X+, r0
     fea:	8a 95       	dec	r24
     fec:	e1 f7       	brne	.-8      	; 0xfe6 <KEYPAD_data+0x18>
     fee:	29 81       	ldd	r18, Y+1	; 0x01
     ff0:	3a 81       	ldd	r19, Y+2	; 0x02
     ff2:	4b 81       	ldd	r20, Y+3	; 0x03
     ff4:	5c 81       	ldd	r21, Y+4	; 0x04
     ff6:	6d 81       	ldd	r22, Y+5	; 0x05
}
     ff8:	70 e0       	ldi	r23, 0x00	; 0
     ffa:	80 e0       	ldi	r24, 0x00	; 0
     ffc:	90 e0       	ldi	r25, 0x00	; 0
     ffe:	0f 90       	pop	r0
    1000:	0f 90       	pop	r0
    1002:	0f 90       	pop	r0
    1004:	0f 90       	pop	r0
    1006:	0f 90       	pop	r0
    1008:	df 91       	pop	r29
    100a:	cf 91       	pop	r28
    100c:	08 95       	ret

0000100e <KEYPAD_flush>:
// flush
void KEYPAD_flush(void)
{
	KEYPADSTRINGINDEX = 0;
    100e:	10 92 ea 02 	sts	0x02EA, r1	; 0x8002ea <KEYPADSTRINGINDEX>
	data.character = ' ';
    1012:	ef e0       	ldi	r30, 0x0F	; 15
    1014:	f3 e0       	ldi	r31, 0x03	; 3
    1016:	80 e2       	ldi	r24, 0x20	; 32
    1018:	80 83       	st	Z, r24
	data.print = endstr;
    101a:	8a e4       	ldi	r24, 0x4A	; 74
    101c:	92 e0       	ldi	r25, 0x02	; 2
    101e:	92 83       	std	Z+2, r25	; 0x02
    1020:	81 83       	std	Z+1, r24	; 0x01
	data.string = endstr;
    1022:	94 83       	std	Z+4, r25	; 0x04
    1024:	83 83       	std	Z+3, r24	; 0x03
    1026:	08 95       	ret

00001028 <KEYPAD_getkey>:
	*keypad_PORT |= (1 << KEYPADLINE_1) | (1 << KEYPADLINE_2) | (1 << KEYPADLINE_3) | (1 << KEYPADLINE_4);
	// Going to use pull down method.
	return keypad;
}
char KEYPAD_getkey(void)
{
    1028:	cf 93       	push	r28
    102a:	df 93       	push	r29
    102c:	21 e0       	ldi	r18, 0x01	; 1
	uint8_t HL;
	char c = 0;
    102e:	80 e0       	ldi	r24, 0x00	; 0
				*keypad_PORT |= (1 << KEYPADLINE_1);
			break;
			case 1: // line 2 index 1
				*keypad_DDR |= (1 << KEYPADLINE_2);
				*keypad_PORT &= ~(1 << KEYPADLINE_2);
				keypad_dataf.line_2 = *keypad_PIN & ((1 << KEYPADDATA_1) | (1 << KEYPADDATA_2) | (1 << KEYPADDATA_3) | (1 << KEYPADDATA_4));
    1030:	a2 ee       	ldi	r26, 0xE2	; 226
    1032:	b2 e0       	ldi	r27, 0x02	; 2
				HL = KEYPADhl(keypad_datai.line_2, keypad_dataf.line_2);
    1034:	e6 ee       	ldi	r30, 0xE6	; 230
    1036:	f2 e0       	ldi	r31, 0x02	; 2
					if(HL == (1 << KEYPADDATA_2))
						c = keypadvalue[1][1];
					if(HL == (1 << KEYPADDATA_3))
						c = keypadvalue[1][2];
					if(HL == (1 << KEYPADDATA_4))
						c = keypadvalue[1][3];
    1038:	60 e0       	ldi	r22, 0x00	; 0
    103a:	71 e0       	ldi	r23, 0x01	; 1
    103c:	01 c0       	rjmp	.+2      	; 0x1040 <KEYPAD_getkey+0x18>
    103e:	2f 5f       	subi	r18, 0xFF	; 255
{
	uint8_t HL;
	char c = 0;
	uint8_t keypad_option;
	for(keypad_option = 0; keypad_option < KEYPADLINES; keypad_option++){
		switch (keypad_option)
    1040:	9f ef       	ldi	r25, 0xFF	; 255
    1042:	92 0f       	add	r25, r18
    1044:	91 30       	cpi	r25, 0x01	; 1
    1046:	09 f4       	brne	.+2      	; 0x104a <KEYPAD_getkey+0x22>
    1048:	4b c0       	rjmp	.+150    	; 0x10e0 <KEYPAD_getkey+0xb8>
    104a:	38 f0       	brcs	.+14     	; 0x105a <KEYPAD_getkey+0x32>
    104c:	92 30       	cpi	r25, 0x02	; 2
    104e:	09 f4       	brne	.+2      	; 0x1052 <KEYPAD_getkey+0x2a>
    1050:	8c c0       	rjmp	.+280    	; 0x116a <KEYPAD_getkey+0x142>
    1052:	93 30       	cpi	r25, 0x03	; 3
    1054:	09 f4       	brne	.+2      	; 0x1058 <KEYPAD_getkey+0x30>
    1056:	ce c0       	rjmp	.+412    	; 0x11f4 <KEYPAD_getkey+0x1cc>
    1058:	0e c1       	rjmp	.+540    	; 0x1276 <KEYPAD_getkey+0x24e>
		{
			case 0: // line 1 index 0
				*keypad_DDR |= (1 << KEYPADLINE_1);
    105a:	40 91 ed 02 	lds	r20, 0x02ED	; 0x8002ed <keypad_DDR>
    105e:	50 91 ee 02 	lds	r21, 0x02EE	; 0x8002ee <keypad_DDR+0x1>
    1062:	ea 01       	movw	r28, r20
    1064:	98 81       	ld	r25, Y
    1066:	90 68       	ori	r25, 0x80	; 128
    1068:	98 83       	st	Y, r25
				*keypad_PORT &= ~(1 << KEYPADLINE_1);
    106a:	40 91 df 02 	lds	r20, 0x02DF	; 0x8002df <keypad_PORT>
    106e:	50 91 e0 02 	lds	r21, 0x02E0	; 0x8002e0 <keypad_PORT+0x1>
    1072:	ea 01       	movw	r28, r20
    1074:	98 81       	ld	r25, Y
    1076:	9f 77       	andi	r25, 0x7F	; 127
    1078:	98 83       	st	Y, r25
				keypad_dataf.line_1 = *keypad_PIN & ((1 << KEYPADDATA_1) | (1 << KEYPADDATA_2) | (1 << KEYPADDATA_3) | (1 << KEYPADDATA_4));
    107a:	40 91 eb 02 	lds	r20, 0x02EB	; 0x8002eb <keypad_PIN>
    107e:	50 91 ec 02 	lds	r21, 0x02EC	; 0x8002ec <keypad_PIN+0x1>
    1082:	ea 01       	movw	r28, r20
    1084:	38 81       	ld	r19, Y
    1086:	34 77       	andi	r19, 0x74	; 116
    1088:	3c 93       	st	X, r19
				HL = KEYPADhl(keypad_datai.line_1, keypad_dataf.line_1);
    108a:	90 81       	ld	r25, Z
uint8_t KEYPADhl(uint8_t xi, uint8_t xf)
{
	uint8_t i;
	// printf("KEYPADhl\n");
	i = xf ^ xi;
	i &= xi;
    108c:	43 2f       	mov	r20, r19
    108e:	49 27       	eor	r20, r25
    1090:	94 23       	and	r25, r20
			case 0: // line 1 index 0
				*keypad_DDR |= (1 << KEYPADLINE_1);
				*keypad_PORT &= ~(1 << KEYPADLINE_1);
				keypad_dataf.line_1 = *keypad_PIN & ((1 << KEYPADDATA_1) | (1 << KEYPADDATA_2) | (1 << KEYPADDATA_3) | (1 << KEYPADDATA_4));
				HL = KEYPADhl(keypad_datai.line_1, keypad_dataf.line_1);
				keypad_datai.line_1 = keypad_dataf.line_1;
    1092:	30 83       	st	Z, r19
				if(HL){
    1094:	99 23       	and	r25, r25
    1096:	99 f0       	breq	.+38     	; 0x10be <KEYPAD_getkey+0x96>
					// decode index line one column what ?
					if(HL == (1 << KEYPADDATA_1))
    1098:	94 30       	cpi	r25, 0x04	; 4
    109a:	19 f4       	brne	.+6      	; 0x10a2 <KEYPAD_getkey+0x7a>
						c = keypadvalue[0][0];
    109c:	eb 01       	movw	r28, r22
    109e:	88 81       	ld	r24, Y
    10a0:	0a c0       	rjmp	.+20     	; 0x10b6 <KEYPAD_getkey+0x8e>
					if(HL == (1 << KEYPADDATA_2))
    10a2:	90 31       	cpi	r25, 0x10	; 16
    10a4:	19 f4       	brne	.+6      	; 0x10ac <KEYPAD_getkey+0x84>
						c = keypadvalue[0][1];
    10a6:	eb 01       	movw	r28, r22
    10a8:	89 81       	ldd	r24, Y+1	; 0x01
    10aa:	09 c0       	rjmp	.+18     	; 0x10be <KEYPAD_getkey+0x96>
					if(HL == (1 << KEYPADDATA_3))
    10ac:	90 32       	cpi	r25, 0x20	; 32
    10ae:	19 f4       	brne	.+6      	; 0x10b6 <KEYPAD_getkey+0x8e>
						c = keypadvalue[0][2];
    10b0:	eb 01       	movw	r28, r22
    10b2:	8a 81       	ldd	r24, Y+2	; 0x02
    10b4:	04 c0       	rjmp	.+8      	; 0x10be <KEYPAD_getkey+0x96>
					if(HL == (1 << KEYPADDATA_4))
    10b6:	90 34       	cpi	r25, 0x40	; 64
    10b8:	11 f4       	brne	.+4      	; 0x10be <KEYPAD_getkey+0x96>
						c = keypadvalue[0][3];
    10ba:	eb 01       	movw	r28, r22
    10bc:	8b 81       	ldd	r24, Y+3	; 0x03
				}
				*keypad_DDR &= ~(1 << KEYPADLINE_1);
    10be:	40 91 ed 02 	lds	r20, 0x02ED	; 0x8002ed <keypad_DDR>
    10c2:	50 91 ee 02 	lds	r21, 0x02EE	; 0x8002ee <keypad_DDR+0x1>
    10c6:	ea 01       	movw	r28, r20
    10c8:	98 81       	ld	r25, Y
    10ca:	9f 77       	andi	r25, 0x7F	; 127
    10cc:	98 83       	st	Y, r25
				*keypad_PORT |= (1 << KEYPADLINE_1);
    10ce:	40 91 df 02 	lds	r20, 0x02DF	; 0x8002df <keypad_PORT>
    10d2:	50 91 e0 02 	lds	r21, 0x02E0	; 0x8002e0 <keypad_PORT+0x1>
    10d6:	ea 01       	movw	r28, r20
    10d8:	98 81       	ld	r25, Y
    10da:	90 68       	ori	r25, 0x80	; 128
    10dc:	98 83       	st	Y, r25
			break;
    10de:	af cf       	rjmp	.-162    	; 0x103e <KEYPAD_getkey+0x16>
			case 1: // line 2 index 1
				*keypad_DDR |= (1 << KEYPADLINE_2);
    10e0:	40 91 ed 02 	lds	r20, 0x02ED	; 0x8002ed <keypad_DDR>
    10e4:	50 91 ee 02 	lds	r21, 0x02EE	; 0x8002ee <keypad_DDR+0x1>
    10e8:	ea 01       	movw	r28, r20
    10ea:	98 81       	ld	r25, Y
    10ec:	91 60       	ori	r25, 0x01	; 1
    10ee:	98 83       	st	Y, r25
				*keypad_PORT &= ~(1 << KEYPADLINE_2);
    10f0:	40 91 df 02 	lds	r20, 0x02DF	; 0x8002df <keypad_PORT>
    10f4:	50 91 e0 02 	lds	r21, 0x02E0	; 0x8002e0 <keypad_PORT+0x1>
    10f8:	ea 01       	movw	r28, r20
    10fa:	98 81       	ld	r25, Y
    10fc:	9e 7f       	andi	r25, 0xFE	; 254
    10fe:	98 83       	st	Y, r25
				keypad_dataf.line_2 = *keypad_PIN & ((1 << KEYPADDATA_1) | (1 << KEYPADDATA_2) | (1 << KEYPADDATA_3) | (1 << KEYPADDATA_4));
    1100:	40 91 eb 02 	lds	r20, 0x02EB	; 0x8002eb <keypad_PIN>
    1104:	50 91 ec 02 	lds	r21, 0x02EC	; 0x8002ec <keypad_PIN+0x1>
    1108:	ea 01       	movw	r28, r20
    110a:	38 81       	ld	r19, Y
    110c:	34 77       	andi	r19, 0x74	; 116
    110e:	11 96       	adiw	r26, 0x01	; 1
    1110:	3c 93       	st	X, r19
    1112:	11 97       	sbiw	r26, 0x01	; 1
				HL = KEYPADhl(keypad_datai.line_2, keypad_dataf.line_2);
    1114:	91 81       	ldd	r25, Z+1	; 0x01
uint8_t KEYPADhl(uint8_t xi, uint8_t xf)
{
	uint8_t i;
	// printf("KEYPADhl\n");
	i = xf ^ xi;
	i &= xi;
    1116:	43 2f       	mov	r20, r19
    1118:	49 27       	eor	r20, r25
    111a:	94 23       	and	r25, r20
			case 1: // line 2 index 1
				*keypad_DDR |= (1 << KEYPADLINE_2);
				*keypad_PORT &= ~(1 << KEYPADLINE_2);
				keypad_dataf.line_2 = *keypad_PIN & ((1 << KEYPADDATA_1) | (1 << KEYPADDATA_2) | (1 << KEYPADDATA_3) | (1 << KEYPADDATA_4));
				HL = KEYPADhl(keypad_datai.line_2, keypad_dataf.line_2);
				keypad_datai.line_2 = keypad_dataf.line_2;
    111c:	31 83       	std	Z+1, r19	; 0x01
				if(HL){
    111e:	99 23       	and	r25, r25
    1120:	99 f0       	breq	.+38     	; 0x1148 <KEYPAD_getkey+0x120>
					// decode index line two column what ?
					if(HL == (1 << KEYPADDATA_1))
    1122:	94 30       	cpi	r25, 0x04	; 4
    1124:	19 f4       	brne	.+6      	; 0x112c <KEYPAD_getkey+0x104>
						c = keypadvalue[1][0];
    1126:	eb 01       	movw	r28, r22
    1128:	8c 81       	ldd	r24, Y+4	; 0x04
    112a:	0a c0       	rjmp	.+20     	; 0x1140 <KEYPAD_getkey+0x118>
					if(HL == (1 << KEYPADDATA_2))
    112c:	90 31       	cpi	r25, 0x10	; 16
    112e:	19 f4       	brne	.+6      	; 0x1136 <KEYPAD_getkey+0x10e>
						c = keypadvalue[1][1];
    1130:	eb 01       	movw	r28, r22
    1132:	8d 81       	ldd	r24, Y+5	; 0x05
    1134:	09 c0       	rjmp	.+18     	; 0x1148 <KEYPAD_getkey+0x120>
					if(HL == (1 << KEYPADDATA_3))
    1136:	90 32       	cpi	r25, 0x20	; 32
    1138:	19 f4       	brne	.+6      	; 0x1140 <KEYPAD_getkey+0x118>
						c = keypadvalue[1][2];
    113a:	eb 01       	movw	r28, r22
    113c:	8e 81       	ldd	r24, Y+6	; 0x06
    113e:	04 c0       	rjmp	.+8      	; 0x1148 <KEYPAD_getkey+0x120>
					if(HL == (1 << KEYPADDATA_4))
    1140:	90 34       	cpi	r25, 0x40	; 64
    1142:	11 f4       	brne	.+4      	; 0x1148 <KEYPAD_getkey+0x120>
						c = keypadvalue[1][3];
    1144:	eb 01       	movw	r28, r22
    1146:	8f 81       	ldd	r24, Y+7	; 0x07
				}
				*keypad_DDR &= ~(1 << KEYPADLINE_2);
    1148:	40 91 ed 02 	lds	r20, 0x02ED	; 0x8002ed <keypad_DDR>
    114c:	50 91 ee 02 	lds	r21, 0x02EE	; 0x8002ee <keypad_DDR+0x1>
    1150:	ea 01       	movw	r28, r20
    1152:	98 81       	ld	r25, Y
    1154:	9e 7f       	andi	r25, 0xFE	; 254
    1156:	98 83       	st	Y, r25
				*keypad_PORT |= (1<<KEYPADLINE_2);
    1158:	40 91 df 02 	lds	r20, 0x02DF	; 0x8002df <keypad_PORT>
    115c:	50 91 e0 02 	lds	r21, 0x02E0	; 0x8002e0 <keypad_PORT+0x1>
    1160:	ea 01       	movw	r28, r20
    1162:	98 81       	ld	r25, Y
    1164:	91 60       	ori	r25, 0x01	; 1
    1166:	98 83       	st	Y, r25
			break;
    1168:	6a cf       	rjmp	.-300    	; 0x103e <KEYPAD_getkey+0x16>
			case 2: // line 3 index 2
				*keypad_DDR |= (1 << KEYPADLINE_3);
    116a:	40 91 ed 02 	lds	r20, 0x02ED	; 0x8002ed <keypad_DDR>
    116e:	50 91 ee 02 	lds	r21, 0x02EE	; 0x8002ee <keypad_DDR+0x1>
    1172:	ea 01       	movw	r28, r20
    1174:	98 81       	ld	r25, Y
    1176:	92 60       	ori	r25, 0x02	; 2
    1178:	98 83       	st	Y, r25
				*keypad_PORT &= ~(1 << KEYPADLINE_3);
    117a:	40 91 df 02 	lds	r20, 0x02DF	; 0x8002df <keypad_PORT>
    117e:	50 91 e0 02 	lds	r21, 0x02E0	; 0x8002e0 <keypad_PORT+0x1>
    1182:	ea 01       	movw	r28, r20
    1184:	98 81       	ld	r25, Y
    1186:	9d 7f       	andi	r25, 0xFD	; 253
    1188:	98 83       	st	Y, r25
				keypad_dataf.line_3 = *keypad_PIN & ((1 << KEYPADDATA_1) | (1 << KEYPADDATA_2) | (1 << KEYPADDATA_3) | (1 << KEYPADDATA_4));
    118a:	40 91 eb 02 	lds	r20, 0x02EB	; 0x8002eb <keypad_PIN>
    118e:	50 91 ec 02 	lds	r21, 0x02EC	; 0x8002ec <keypad_PIN+0x1>
    1192:	ea 01       	movw	r28, r20
    1194:	38 81       	ld	r19, Y
    1196:	34 77       	andi	r19, 0x74	; 116
    1198:	12 96       	adiw	r26, 0x02	; 2
    119a:	3c 93       	st	X, r19
    119c:	12 97       	sbiw	r26, 0x02	; 2
				HL = KEYPADhl(keypad_datai.line_3, keypad_dataf.line_3);
    119e:	92 81       	ldd	r25, Z+2	; 0x02
uint8_t KEYPADhl(uint8_t xi, uint8_t xf)
{
	uint8_t i;
	// printf("KEYPADhl\n");
	i = xf ^ xi;
	i &= xi;
    11a0:	43 2f       	mov	r20, r19
    11a2:	49 27       	eor	r20, r25
    11a4:	94 23       	and	r25, r20
			case 2: // line 3 index 2
				*keypad_DDR |= (1 << KEYPADLINE_3);
				*keypad_PORT &= ~(1 << KEYPADLINE_3);
				keypad_dataf.line_3 = *keypad_PIN & ((1 << KEYPADDATA_1) | (1 << KEYPADDATA_2) | (1 << KEYPADDATA_3) | (1 << KEYPADDATA_4));
				HL = KEYPADhl(keypad_datai.line_3, keypad_dataf.line_3);
				keypad_datai.line_3 = keypad_dataf.line_3;
    11a6:	32 83       	std	Z+2, r19	; 0x02
				if(HL){
    11a8:	99 23       	and	r25, r25
    11aa:	99 f0       	breq	.+38     	; 0x11d2 <KEYPAD_getkey+0x1aa>
					// decode index line three column what ?
					if(HL == (1 << KEYPADDATA_1))
    11ac:	94 30       	cpi	r25, 0x04	; 4
    11ae:	19 f4       	brne	.+6      	; 0x11b6 <KEYPAD_getkey+0x18e>
						c = keypadvalue[2][0];
    11b0:	eb 01       	movw	r28, r22
    11b2:	88 85       	ldd	r24, Y+8	; 0x08
    11b4:	0a c0       	rjmp	.+20     	; 0x11ca <KEYPAD_getkey+0x1a2>
					if(HL == (1 << KEYPADDATA_2))
    11b6:	90 31       	cpi	r25, 0x10	; 16
    11b8:	19 f4       	brne	.+6      	; 0x11c0 <KEYPAD_getkey+0x198>
						c = keypadvalue[2][1];
    11ba:	eb 01       	movw	r28, r22
    11bc:	89 85       	ldd	r24, Y+9	; 0x09
    11be:	09 c0       	rjmp	.+18     	; 0x11d2 <KEYPAD_getkey+0x1aa>
					if(HL == (1 << KEYPADDATA_3))
    11c0:	90 32       	cpi	r25, 0x20	; 32
    11c2:	19 f4       	brne	.+6      	; 0x11ca <KEYPAD_getkey+0x1a2>
						c = keypadvalue[2][2];
    11c4:	eb 01       	movw	r28, r22
    11c6:	8a 85       	ldd	r24, Y+10	; 0x0a
    11c8:	04 c0       	rjmp	.+8      	; 0x11d2 <KEYPAD_getkey+0x1aa>
					if(HL == (1 << KEYPADDATA_4))
    11ca:	90 34       	cpi	r25, 0x40	; 64
    11cc:	11 f4       	brne	.+4      	; 0x11d2 <KEYPAD_getkey+0x1aa>
						c = keypadvalue[2][3];
    11ce:	eb 01       	movw	r28, r22
    11d0:	8b 85       	ldd	r24, Y+11	; 0x0b
				}
				*keypad_DDR &= ~(1 << KEYPADLINE_3);
    11d2:	40 91 ed 02 	lds	r20, 0x02ED	; 0x8002ed <keypad_DDR>
    11d6:	50 91 ee 02 	lds	r21, 0x02EE	; 0x8002ee <keypad_DDR+0x1>
    11da:	ea 01       	movw	r28, r20
    11dc:	98 81       	ld	r25, Y
    11de:	9d 7f       	andi	r25, 0xFD	; 253
    11e0:	98 83       	st	Y, r25
				*keypad_PORT |= (1 << KEYPADLINE_3);
    11e2:	40 91 df 02 	lds	r20, 0x02DF	; 0x8002df <keypad_PORT>
    11e6:	50 91 e0 02 	lds	r21, 0x02E0	; 0x8002e0 <keypad_PORT+0x1>
    11ea:	ea 01       	movw	r28, r20
    11ec:	98 81       	ld	r25, Y
    11ee:	92 60       	ori	r25, 0x02	; 2
    11f0:	98 83       	st	Y, r25
			break;
    11f2:	25 cf       	rjmp	.-438    	; 0x103e <KEYPAD_getkey+0x16>
			case 3: // line 4 index 3
				*keypad_DDR |= (1 << KEYPADLINE_4);
    11f4:	e0 91 ed 02 	lds	r30, 0x02ED	; 0x8002ed <keypad_DDR>
    11f8:	f0 91 ee 02 	lds	r31, 0x02EE	; 0x8002ee <keypad_DDR+0x1>
    11fc:	90 81       	ld	r25, Z
    11fe:	98 60       	ori	r25, 0x08	; 8
    1200:	90 83       	st	Z, r25
				*keypad_PORT &= ~(1 << KEYPADLINE_4);
    1202:	e0 91 df 02 	lds	r30, 0x02DF	; 0x8002df <keypad_PORT>
    1206:	f0 91 e0 02 	lds	r31, 0x02E0	; 0x8002e0 <keypad_PORT+0x1>
    120a:	90 81       	ld	r25, Z
    120c:	97 7f       	andi	r25, 0xF7	; 247
    120e:	90 83       	st	Z, r25
				keypad_dataf.line_4 = *keypad_PIN & ((1 << KEYPADDATA_1) | (1 << KEYPADDATA_2) | (1 << KEYPADDATA_3) | (1 << KEYPADDATA_4));
    1210:	e0 91 eb 02 	lds	r30, 0x02EB	; 0x8002eb <keypad_PIN>
    1214:	f0 91 ec 02 	lds	r31, 0x02EC	; 0x8002ec <keypad_PIN+0x1>
    1218:	20 81       	ld	r18, Z
    121a:	24 77       	andi	r18, 0x74	; 116
    121c:	20 93 e5 02 	sts	0x02E5, r18	; 0x8002e5 <keypad_dataf+0x3>
				HL = KEYPADhl(keypad_datai.line_4, keypad_dataf.line_4);
    1220:	e6 ee       	ldi	r30, 0xE6	; 230
    1222:	f2 e0       	ldi	r31, 0x02	; 2
    1224:	93 81       	ldd	r25, Z+3	; 0x03
uint8_t KEYPADhl(uint8_t xi, uint8_t xf)
{
	uint8_t i;
	// printf("KEYPADhl\n");
	i = xf ^ xi;
	i &= xi;
    1226:	32 2f       	mov	r19, r18
    1228:	39 27       	eor	r19, r25
    122a:	93 23       	and	r25, r19
			case 3: // line 4 index 3
				*keypad_DDR |= (1 << KEYPADLINE_4);
				*keypad_PORT &= ~(1 << KEYPADLINE_4);
				keypad_dataf.line_4 = *keypad_PIN & ((1 << KEYPADDATA_1) | (1 << KEYPADDATA_2) | (1 << KEYPADDATA_3) | (1 << KEYPADDATA_4));
				HL = KEYPADhl(keypad_datai.line_4, keypad_dataf.line_4);
				keypad_datai.line_4 = keypad_dataf.line_4;
    122c:	23 83       	std	Z+3, r18	; 0x03
				if(HL){
    122e:	99 23       	and	r25, r25
    1230:	99 f0       	breq	.+38     	; 0x1258 <KEYPAD_getkey+0x230>
					// decode index line four column what ?
					if(HL == (1 << KEYPADDATA_1))
    1232:	94 30       	cpi	r25, 0x04	; 4
    1234:	19 f4       	brne	.+6      	; 0x123c <KEYPAD_getkey+0x214>
						c = keypadvalue[3][0];
    1236:	80 91 0c 01 	lds	r24, 0x010C	; 0x80010c <__data_start+0xc>
    123a:	0a c0       	rjmp	.+20     	; 0x1250 <KEYPAD_getkey+0x228>
					if(HL == (1 << KEYPADDATA_2))
    123c:	90 31       	cpi	r25, 0x10	; 16
    123e:	19 f4       	brne	.+6      	; 0x1246 <KEYPAD_getkey+0x21e>
						c = keypadvalue[3][1];
    1240:	80 91 0d 01 	lds	r24, 0x010D	; 0x80010d <__data_start+0xd>
    1244:	09 c0       	rjmp	.+18     	; 0x1258 <KEYPAD_getkey+0x230>
					if(HL == (1 << KEYPADDATA_3))
    1246:	90 32       	cpi	r25, 0x20	; 32
    1248:	19 f4       	brne	.+6      	; 0x1250 <KEYPAD_getkey+0x228>
						c = keypadvalue[3][2];
    124a:	80 91 0e 01 	lds	r24, 0x010E	; 0x80010e <__data_start+0xe>
    124e:	04 c0       	rjmp	.+8      	; 0x1258 <KEYPAD_getkey+0x230>
					if(HL == (1 << KEYPADDATA_4))
    1250:	90 34       	cpi	r25, 0x40	; 64
    1252:	11 f4       	brne	.+4      	; 0x1258 <KEYPAD_getkey+0x230>
						c = keypadvalue[3][3];
    1254:	80 91 0f 01 	lds	r24, 0x010F	; 0x80010f <__data_start+0xf>
				}
				*keypad_DDR &= ~(1 << KEYPADLINE_4);
    1258:	e0 91 ed 02 	lds	r30, 0x02ED	; 0x8002ed <keypad_DDR>
    125c:	f0 91 ee 02 	lds	r31, 0x02EE	; 0x8002ee <keypad_DDR+0x1>
    1260:	90 81       	ld	r25, Z
    1262:	97 7f       	andi	r25, 0xF7	; 247
    1264:	90 83       	st	Z, r25
				*keypad_PORT |= (1 << KEYPADLINE_4);
    1266:	e0 91 df 02 	lds	r30, 0x02DF	; 0x8002df <keypad_PORT>
    126a:	f0 91 e0 02 	lds	r31, 0x02E0	; 0x8002e0 <keypad_PORT+0x1>
    126e:	90 81       	ld	r25, Z
    1270:	98 60       	ori	r25, 0x08	; 8
    1272:	90 83       	st	Z, r25
    1274:	03 c0       	rjmp	.+6      	; 0x127c <KEYPAD_getkey+0x254>
char KEYPAD_getkey(void)
{
	uint8_t HL;
	char c = 0;
	uint8_t keypad_option;
	for(keypad_option = 0; keypad_option < KEYPADLINES; keypad_option++){
    1276:	24 30       	cpi	r18, 0x04	; 4
    1278:	08 f4       	brcc	.+2      	; 0x127c <KEYPAD_getkey+0x254>
    127a:	e1 ce       	rjmp	.-574    	; 0x103e <KEYPAD_getkey+0x16>
			default:
			break;
		}
	}
	return c;
}
    127c:	df 91       	pop	r29
    127e:	cf 91       	pop	r28
    1280:	08 95       	ret

00001282 <KEYPAD_read>:
// read
void KEYPAD_read(void)
{
	char c;
	c = KEYPAD_getkey(); // returns null ('\0') all the time when no entry
    1282:	0e 94 14 08 	call	0x1028	; 0x1028 <KEYPAD_getkey>
	if(c){
    1286:	88 23       	and	r24, r24
    1288:	09 f4       	brne	.+2      	; 0x128c <KEYPAD_read+0xa>
    128a:	45 c0       	rjmp	.+138    	; 0x1316 <KEYPAD_read+0x94>
		data.character = c;
    128c:	80 93 0f 03 	sts	0x030F, r24	; 0x80030f <data>
		if(c == KEYPADENTERKEY){
    1290:	84 34       	cpi	r24, 0x44	; 68
    1292:	99 f4       	brne	.+38     	; 0x12ba <KEYPAD_read+0x38>
			KEYPAD_string[KEYPADSTRINGINDEX] = '\0';
    1294:	e0 91 ea 02 	lds	r30, 0x02EA	; 0x8002ea <KEYPADSTRINGINDEX>
    1298:	f0 e0       	ldi	r31, 0x00	; 0
    129a:	e1 51       	subi	r30, 0x11	; 17
    129c:	fd 4f       	sbci	r31, 0xFD	; 253
    129e:	10 82       	st	Z, r1
			KEYPADSTRINGINDEX = 0;
    12a0:	10 92 ea 02 	sts	0x02EA, r1	; 0x8002ea <KEYPADSTRINGINDEX>
			data.print = endstr;
    12a4:	ef e0       	ldi	r30, 0x0F	; 15
    12a6:	f3 e0       	ldi	r31, 0x03	; 3
    12a8:	8a e4       	ldi	r24, 0x4A	; 74
    12aa:	92 e0       	ldi	r25, 0x02	; 2
    12ac:	92 83       	std	Z+2, r25	; 0x02
    12ae:	81 83       	std	Z+1, r24	; 0x01
			data.string = KEYPAD_string; // shift output
    12b0:	8f ee       	ldi	r24, 0xEF	; 239
    12b2:	92 e0       	ldi	r25, 0x02	; 2
    12b4:	94 83       	std	Z+4, r25	; 0x04
    12b6:	83 83       	std	Z+3, r24	; 0x03
    12b8:	08 95       	ret
		}else{
			if(KEYPADSTRINGINDEX < KEYPADSTRINGSIZE){
    12ba:	e0 91 ea 02 	lds	r30, 0x02EA	; 0x8002ea <KEYPADSTRINGINDEX>
    12be:	e6 30       	cpi	r30, 0x06	; 6
    12c0:	b8 f4       	brcc	.+46     	; 0x12f0 <KEYPAD_read+0x6e>
				KEYPAD_string[KEYPADSTRINGINDEX] = c;
    12c2:	ae 2f       	mov	r26, r30
    12c4:	b0 e0       	ldi	r27, 0x00	; 0
    12c6:	a1 51       	subi	r26, 0x11	; 17
    12c8:	bd 4f       	sbci	r27, 0xFD	; 253
    12ca:	8c 93       	st	X, r24
				KEYPADSTRINGINDEX++;
    12cc:	ef 5f       	subi	r30, 0xFF	; 255
    12ce:	e0 93 ea 02 	sts	0x02EA, r30	; 0x8002ea <KEYPADSTRINGINDEX>
				KEYPAD_string[KEYPADSTRINGINDEX] = '\0';
    12d2:	f0 e0       	ldi	r31, 0x00	; 0
    12d4:	e1 51       	subi	r30, 0x11	; 17
    12d6:	fd 4f       	sbci	r31, 0xFD	; 253
    12d8:	10 82       	st	Z, r1
				data.print = KEYPAD_string;
    12da:	ef e0       	ldi	r30, 0x0F	; 15
    12dc:	f3 e0       	ldi	r31, 0x03	; 3
    12de:	8f ee       	ldi	r24, 0xEF	; 239
    12e0:	92 e0       	ldi	r25, 0x02	; 2
    12e2:	92 83       	std	Z+2, r25	; 0x02
    12e4:	81 83       	std	Z+1, r24	; 0x01
				data.string = endstr; // clear output
    12e6:	8a e4       	ldi	r24, 0x4A	; 74
    12e8:	92 e0       	ldi	r25, 0x02	; 2
    12ea:	94 83       	std	Z+4, r25	; 0x04
    12ec:	83 83       	std	Z+3, r24	; 0x03
    12ee:	08 95       	ret
			}else{
				KEYPADSTRINGINDEX = 0;
				KEYPAD_string[KEYPADSTRINGINDEX] = c;
    12f0:	ef ee       	ldi	r30, 0xEF	; 239
    12f2:	f2 e0       	ldi	r31, 0x02	; 2
    12f4:	80 83       	st	Z, r24
				KEYPADSTRINGINDEX++;
    12f6:	81 e0       	ldi	r24, 0x01	; 1
    12f8:	80 93 ea 02 	sts	0x02EA, r24	; 0x8002ea <KEYPADSTRINGINDEX>
				KEYPAD_string[KEYPADSTRINGINDEX] = '\0';
    12fc:	11 82       	std	Z+1, r1	; 0x01
				data.print = KEYPAD_string;
    12fe:	af e0       	ldi	r26, 0x0F	; 15
    1300:	b3 e0       	ldi	r27, 0x03	; 3
    1302:	12 96       	adiw	r26, 0x02	; 2
    1304:	fc 93       	st	X, r31
    1306:	ee 93       	st	-X, r30
    1308:	11 97       	sbiw	r26, 0x01	; 1
				data.string = endstr; // clear output
    130a:	8a e4       	ldi	r24, 0x4A	; 74
    130c:	92 e0       	ldi	r25, 0x02	; 2
    130e:	14 96       	adiw	r26, 0x04	; 4
    1310:	9c 93       	st	X, r25
    1312:	8e 93       	st	-X, r24
    1314:	13 97       	sbiw	r26, 0x03	; 3
    1316:	08 95       	ret

00001318 <KEYPADenable>:
// hl
uint8_t KEYPADhl(uint8_t xi, uint8_t xf);

/*** Procedure & Function ***/
KEYPAD KEYPADenable(volatile uint8_t *ddr, volatile uint8_t *pin, volatile uint8_t *port)
{
    1318:	cf 93       	push	r28
    131a:	df 93       	push	r29
    131c:	cd b7       	in	r28, 0x3d	; 61
    131e:	de b7       	in	r29, 0x3e	; 62
    1320:	28 97       	sbiw	r28, 0x08	; 8
    1322:	0f b6       	in	r0, 0x3f	; 63
    1324:	f8 94       	cli
    1326:	de bf       	out	0x3e, r29	; 62
    1328:	0f be       	out	0x3f, r0	; 63
    132a:	cd bf       	out	0x3d, r28	; 61
	// LOCAL VARIABLE
	data.character = ' ';
    132c:	20 e2       	ldi	r18, 0x20	; 32
    132e:	20 93 0f 03 	sts	0x030F, r18	; 0x80030f <data>
	// ALLOCAO MEMORIA PARA Estrutura
	KEYPAD keypad;
	// import parameters
	keypad_DDR = ddr;
    1332:	90 93 ee 02 	sts	0x02EE, r25	; 0x8002ee <keypad_DDR+0x1>
    1336:	80 93 ed 02 	sts	0x02ED, r24	; 0x8002ed <keypad_DDR>
	keypad_PIN = pin;
    133a:	70 93 ec 02 	sts	0x02EC, r23	; 0x8002ec <keypad_PIN+0x1>
    133e:	60 93 eb 02 	sts	0x02EB, r22	; 0x8002eb <keypad_PIN>
	keypad_PORT = port;
    1342:	50 93 e0 02 	sts	0x02E0, r21	; 0x8002e0 <keypad_PORT+0x1>
    1346:	40 93 df 02 	sts	0x02DF, r20	; 0x8002df <keypad_PORT>
	// initialize variables
	*keypad_DDR = (1 << KEYPADLINE_1) | (1 << KEYPADLINE_2) | (1 << KEYPADLINE_3) | (1 << KEYPADLINE_4);
    134a:	2b e8       	ldi	r18, 0x8B	; 139
    134c:	fc 01       	movw	r30, r24
    134e:	20 83       	st	Z, r18
	*keypad_PORT = (1 << KEYPADDATA_1) | (1 << KEYPADDATA_2) | (1 << KEYPADDATA_3) | (1 << KEYPADDATA_4);
    1350:	e0 91 df 02 	lds	r30, 0x02DF	; 0x8002df <keypad_PORT>
    1354:	f0 91 e0 02 	lds	r31, 0x02E0	; 0x8002e0 <keypad_PORT+0x1>
    1358:	84 e7       	ldi	r24, 0x74	; 116
    135a:	80 83       	st	Z, r24
	keypad_datai.line_1 = keypad_dataf.line_1 = (1 << KEYPADDATA_1) | (1 << KEYPADDATA_2) | (1 << KEYPADDATA_3) | (1 << KEYPADDATA_4);
    135c:	a2 ee       	ldi	r26, 0xE2	; 226
    135e:	b2 e0       	ldi	r27, 0x02	; 2
    1360:	8c 93       	st	X, r24
    1362:	e6 ee       	ldi	r30, 0xE6	; 230
    1364:	f2 e0       	ldi	r31, 0x02	; 2
    1366:	80 83       	st	Z, r24
	keypad_datai.line_2 = keypad_dataf.line_2 = (1 << KEYPADDATA_1) | (1 << KEYPADDATA_2) | (1 << KEYPADDATA_3) | (1 << KEYPADDATA_4);
    1368:	11 96       	adiw	r26, 0x01	; 1
    136a:	8c 93       	st	X, r24
    136c:	11 97       	sbiw	r26, 0x01	; 1
    136e:	81 83       	std	Z+1, r24	; 0x01
	keypad_datai.line_3 = keypad_dataf.line_3 = (1 << KEYPADDATA_1) | (1 << KEYPADDATA_2) | (1 << KEYPADDATA_3) | (1 << KEYPADDATA_4);
    1370:	12 96       	adiw	r26, 0x02	; 2
    1372:	8c 93       	st	X, r24
    1374:	12 97       	sbiw	r26, 0x02	; 2
    1376:	82 83       	std	Z+2, r24	; 0x02
	keypad_datai.line_4 = keypad_dataf.line_4 = (1 << KEYPADDATA_1) | (1 << KEYPADDATA_2) | (1 << KEYPADDATA_3) | (1 << KEYPADDATA_4);
    1378:	13 96       	adiw	r26, 0x03	; 3
    137a:	8c 93       	st	X, r24
    137c:	83 83       	std	Z+3, r24	; 0x03
	KEYPADSTRINGINDEX = 0;
    137e:	10 92 ea 02 	sts	0x02EA, r1	; 0x8002ea <KEYPADSTRINGINDEX>
	keypad.getkey = KEYPAD_getkey;
	keypad.read = KEYPAD_read;
	keypad.data = KEYPAD_data;
	keypad.flush = KEYPAD_flush;
	//
	*keypad_PORT |= (1 << KEYPADLINE_1) | (1 << KEYPADLINE_2) | (1 << KEYPADLINE_3) | (1 << KEYPADLINE_4);
    1382:	e0 91 df 02 	lds	r30, 0x02DF	; 0x8002df <keypad_PORT>
    1386:	f0 91 e0 02 	lds	r31, 0x02E0	; 0x8002e0 <keypad_PORT+0x1>
    138a:	80 81       	ld	r24, Z
    138c:	8b 68       	ori	r24, 0x8B	; 139
    138e:	80 83       	st	Z, r24
	// Going to use pull down method.
	return keypad;
    1390:	24 e1       	ldi	r18, 0x14	; 20
    1392:	38 e0       	ldi	r19, 0x08	; 8
    1394:	3a 83       	std	Y+2, r19	; 0x02
    1396:	29 83       	std	Y+1, r18	; 0x01
    1398:	41 e4       	ldi	r20, 0x41	; 65
    139a:	59 e0       	ldi	r21, 0x09	; 9
    139c:	5c 83       	std	Y+4, r21	; 0x04
    139e:	4b 83       	std	Y+3, r20	; 0x03
    13a0:	67 ee       	ldi	r22, 0xE7	; 231
    13a2:	77 e0       	ldi	r23, 0x07	; 7
    13a4:	7e 83       	std	Y+6, r23	; 0x06
    13a6:	6d 83       	std	Y+5, r22	; 0x05
    13a8:	87 e0       	ldi	r24, 0x07	; 7
    13aa:	98 e0       	ldi	r25, 0x08	; 8
    13ac:	98 87       	std	Y+8, r25	; 0x08
    13ae:	8f 83       	std	Y+7, r24	; 0x07
    13b0:	3a 81       	ldd	r19, Y+2	; 0x02
    13b2:	5c 81       	ldd	r21, Y+4	; 0x04
    13b4:	7e 81       	ldd	r23, Y+6	; 0x06
}
    13b6:	98 85       	ldd	r25, Y+8	; 0x08
    13b8:	28 96       	adiw	r28, 0x08	; 8
    13ba:	0f b6       	in	r0, 0x3f	; 63
    13bc:	f8 94       	cli
    13be:	de bf       	out	0x3e, r29	; 62
    13c0:	0f be       	out	0x3f, r0	; 63
    13c2:	cd bf       	out	0x3d, r28	; 61
    13c4:	df 91       	pop	r29
    13c6:	cf 91       	pop	r28
    13c8:	08 95       	ret

000013ca <LCD0_strobe>:
		break;
	}
}
void LCD0_strobe(uint16_t num)
{
	*lcd0_PORT &= ~(1 << EN);
    13ca:	e0 91 00 03 	lds	r30, 0x0300	; 0x800300 <lcd0_PORT>
    13ce:	f0 91 01 03 	lds	r31, 0x0301	; 0x800301 <lcd0_PORT+0x1>
    13d2:	80 81       	ld	r24, Z
    13d4:	8b 7f       	andi	r24, 0xFB	; 251
    13d6:	80 83       	st	Z, r24
	LCD_ticks(num);
	*lcd0_PORT |= (1 << EN);
    13d8:	e0 91 00 03 	lds	r30, 0x0300	; 0x800300 <lcd0_PORT>
    13dc:	f0 91 01 03 	lds	r31, 0x0301	; 0x800301 <lcd0_PORT+0x1>
    13e0:	80 81       	ld	r24, Z
    13e2:	84 60       	ori	r24, 0x04	; 4
    13e4:	80 83       	st	Z, r24
    13e6:	08 95       	ret

000013e8 <LCD0_write>:
	// LCD0_write(0x03, INST);// return home
	// _delay_ms(1.53);
	LCD0_gotoxy(0,0);
}
void LCD0_write(char c, unsigned short D_I)
{
    13e8:	0f 93       	push	r16
    13ea:	1f 93       	push	r17
    13ec:	cf 93       	push	r28
    13ee:	c8 2f       	mov	r28, r24
    13f0:	8b 01       	movw	r16, r22
	*lcd0_PORT &= ~(1 << RW); // lcd as input
    13f2:	e0 91 00 03 	lds	r30, 0x0300	; 0x800300 <lcd0_PORT>
    13f6:	f0 91 01 03 	lds	r31, 0x0301	; 0x800301 <lcd0_PORT+0x1>
    13fa:	80 81       	ld	r24, Z
    13fc:	8d 7f       	andi	r24, 0xFD	; 253
    13fe:	80 83       	st	Z, r24
	*lcd0_DDR |= (1 << DB4) | (1 << DB5) | (1 << DB6) | (1 << DB7); // mcu as output
    1400:	e0 91 fd 02 	lds	r30, 0x02FD	; 0x8002fd <lcd0_DDR>
    1404:	f0 91 fe 02 	lds	r31, 0x02FE	; 0x8002fe <lcd0_DDR+0x1>
    1408:	80 81       	ld	r24, Z
    140a:	80 6f       	ori	r24, 0xF0	; 240
    140c:	80 83       	st	Z, r24
	
	if(D_I) *lcd0_PORT |= (1 << RS); else *lcd0_PORT &= ~(1 << RS);
    140e:	67 2b       	or	r22, r23
    1410:	41 f0       	breq	.+16     	; 0x1422 <LCD0_write+0x3a>
    1412:	e0 91 00 03 	lds	r30, 0x0300	; 0x800300 <lcd0_PORT>
    1416:	f0 91 01 03 	lds	r31, 0x0301	; 0x800301 <lcd0_PORT+0x1>
    141a:	80 81       	ld	r24, Z
    141c:	81 60       	ori	r24, 0x01	; 1
    141e:	80 83       	st	Z, r24
    1420:	07 c0       	rjmp	.+14     	; 0x1430 <LCD0_write+0x48>
    1422:	e0 91 00 03 	lds	r30, 0x0300	; 0x800300 <lcd0_PORT>
    1426:	f0 91 01 03 	lds	r31, 0x0301	; 0x800301 <lcd0_PORT+0x1>
    142a:	80 81       	ld	r24, Z
    142c:	8e 7f       	andi	r24, 0xFE	; 254
    142e:	80 83       	st	Z, r24
	LCD0_strobe(LCD_N_TICKS); LCD_ticks(BIT_N_TICKS);
    1430:	80 e0       	ldi	r24, 0x00	; 0
    1432:	90 e0       	ldi	r25, 0x00	; 0
    1434:	0e 94 e5 09 	call	0x13ca	; 0x13ca <LCD0_strobe>
	
	if(c & 0x80) *lcd0_PORT |= 1 << DB7; else *lcd0_PORT &= ~(1 << DB7); LCD_ticks(BIT_N_TICKS);
    1438:	cc 23       	and	r28, r28
    143a:	44 f4       	brge	.+16     	; 0x144c <LCD0_write+0x64>
    143c:	e0 91 00 03 	lds	r30, 0x0300	; 0x800300 <lcd0_PORT>
    1440:	f0 91 01 03 	lds	r31, 0x0301	; 0x800301 <lcd0_PORT+0x1>
    1444:	80 81       	ld	r24, Z
    1446:	80 68       	ori	r24, 0x80	; 128
    1448:	80 83       	st	Z, r24
    144a:	07 c0       	rjmp	.+14     	; 0x145a <LCD0_write+0x72>
    144c:	e0 91 00 03 	lds	r30, 0x0300	; 0x800300 <lcd0_PORT>
    1450:	f0 91 01 03 	lds	r31, 0x0301	; 0x800301 <lcd0_PORT+0x1>
    1454:	80 81       	ld	r24, Z
    1456:	8f 77       	andi	r24, 0x7F	; 127
    1458:	80 83       	st	Z, r24
	if(c & 0x40) *lcd0_PORT |= 1 << DB6; else *lcd0_PORT &= ~(1 << DB6); LCD_ticks(BIT_N_TICKS);
    145a:	c6 ff       	sbrs	r28, 6
    145c:	08 c0       	rjmp	.+16     	; 0x146e <LCD0_write+0x86>
    145e:	e0 91 00 03 	lds	r30, 0x0300	; 0x800300 <lcd0_PORT>
    1462:	f0 91 01 03 	lds	r31, 0x0301	; 0x800301 <lcd0_PORT+0x1>
    1466:	80 81       	ld	r24, Z
    1468:	80 64       	ori	r24, 0x40	; 64
    146a:	80 83       	st	Z, r24
    146c:	07 c0       	rjmp	.+14     	; 0x147c <LCD0_write+0x94>
    146e:	e0 91 00 03 	lds	r30, 0x0300	; 0x800300 <lcd0_PORT>
    1472:	f0 91 01 03 	lds	r31, 0x0301	; 0x800301 <lcd0_PORT+0x1>
    1476:	80 81       	ld	r24, Z
    1478:	8f 7b       	andi	r24, 0xBF	; 191
    147a:	80 83       	st	Z, r24
	if(c & 0x20) *lcd0_PORT |= 1 << DB5; else *lcd0_PORT &= ~(1 << DB5); LCD_ticks(BIT_N_TICKS);
    147c:	c5 ff       	sbrs	r28, 5
    147e:	08 c0       	rjmp	.+16     	; 0x1490 <LCD0_write+0xa8>
    1480:	e0 91 00 03 	lds	r30, 0x0300	; 0x800300 <lcd0_PORT>
    1484:	f0 91 01 03 	lds	r31, 0x0301	; 0x800301 <lcd0_PORT+0x1>
    1488:	80 81       	ld	r24, Z
    148a:	80 62       	ori	r24, 0x20	; 32
    148c:	80 83       	st	Z, r24
    148e:	07 c0       	rjmp	.+14     	; 0x149e <LCD0_write+0xb6>
    1490:	e0 91 00 03 	lds	r30, 0x0300	; 0x800300 <lcd0_PORT>
    1494:	f0 91 01 03 	lds	r31, 0x0301	; 0x800301 <lcd0_PORT+0x1>
    1498:	80 81       	ld	r24, Z
    149a:	8f 7d       	andi	r24, 0xDF	; 223
    149c:	80 83       	st	Z, r24
	if(c & 0x10) *lcd0_PORT |= 1 << DB4; else *lcd0_PORT &= ~(1 << DB4); LCD_ticks(BIT_N_TICKS);
    149e:	c4 ff       	sbrs	r28, 4
    14a0:	08 c0       	rjmp	.+16     	; 0x14b2 <LCD0_write+0xca>
    14a2:	e0 91 00 03 	lds	r30, 0x0300	; 0x800300 <lcd0_PORT>
    14a6:	f0 91 01 03 	lds	r31, 0x0301	; 0x800301 <lcd0_PORT+0x1>
    14aa:	80 81       	ld	r24, Z
    14ac:	80 61       	ori	r24, 0x10	; 16
    14ae:	80 83       	st	Z, r24
    14b0:	07 c0       	rjmp	.+14     	; 0x14c0 <LCD0_write+0xd8>
    14b2:	e0 91 00 03 	lds	r30, 0x0300	; 0x800300 <lcd0_PORT>
    14b6:	f0 91 01 03 	lds	r31, 0x0301	; 0x800301 <lcd0_PORT+0x1>
    14ba:	80 81       	ld	r24, Z
    14bc:	8f 7e       	andi	r24, 0xEF	; 239
    14be:	80 83       	st	Z, r24
	
	if(D_I) *lcd0_PORT |= (1 << RS); else *lcd0_PORT &= ~(1 << RS);
    14c0:	01 2b       	or	r16, r17
    14c2:	41 f0       	breq	.+16     	; 0x14d4 <LCD0_write+0xec>
    14c4:	e0 91 00 03 	lds	r30, 0x0300	; 0x800300 <lcd0_PORT>
    14c8:	f0 91 01 03 	lds	r31, 0x0301	; 0x800301 <lcd0_PORT+0x1>
    14cc:	80 81       	ld	r24, Z
    14ce:	81 60       	ori	r24, 0x01	; 1
    14d0:	80 83       	st	Z, r24
    14d2:	07 c0       	rjmp	.+14     	; 0x14e2 <LCD0_write+0xfa>
    14d4:	e0 91 00 03 	lds	r30, 0x0300	; 0x800300 <lcd0_PORT>
    14d8:	f0 91 01 03 	lds	r31, 0x0301	; 0x800301 <lcd0_PORT+0x1>
    14dc:	80 81       	ld	r24, Z
    14de:	8e 7f       	andi	r24, 0xFE	; 254
    14e0:	80 83       	st	Z, r24
	LCD0_strobe(LCD_N_TICKS); LCD_ticks(BIT_N_TICKS);
    14e2:	80 e0       	ldi	r24, 0x00	; 0
    14e4:	90 e0       	ldi	r25, 0x00	; 0
    14e6:	0e 94 e5 09 	call	0x13ca	; 0x13ca <LCD0_strobe>
	
	if(c & 0x08) *lcd0_PORT |= 1 << DB7; else *lcd0_PORT &= ~(1 << DB7); LCD_ticks(BIT_N_TICKS);
    14ea:	c3 ff       	sbrs	r28, 3
    14ec:	08 c0       	rjmp	.+16     	; 0x14fe <LCD0_write+0x116>
    14ee:	e0 91 00 03 	lds	r30, 0x0300	; 0x800300 <lcd0_PORT>
    14f2:	f0 91 01 03 	lds	r31, 0x0301	; 0x800301 <lcd0_PORT+0x1>
    14f6:	80 81       	ld	r24, Z
    14f8:	80 68       	ori	r24, 0x80	; 128
    14fa:	80 83       	st	Z, r24
    14fc:	07 c0       	rjmp	.+14     	; 0x150c <LCD0_write+0x124>
    14fe:	e0 91 00 03 	lds	r30, 0x0300	; 0x800300 <lcd0_PORT>
    1502:	f0 91 01 03 	lds	r31, 0x0301	; 0x800301 <lcd0_PORT+0x1>
    1506:	80 81       	ld	r24, Z
    1508:	8f 77       	andi	r24, 0x7F	; 127
    150a:	80 83       	st	Z, r24
	if(c & 0x04) *lcd0_PORT |= 1 << DB6; else *lcd0_PORT &= ~(1 << DB6); LCD_ticks(BIT_N_TICKS);
    150c:	c2 ff       	sbrs	r28, 2
    150e:	08 c0       	rjmp	.+16     	; 0x1520 <LCD0_write+0x138>
    1510:	e0 91 00 03 	lds	r30, 0x0300	; 0x800300 <lcd0_PORT>
    1514:	f0 91 01 03 	lds	r31, 0x0301	; 0x800301 <lcd0_PORT+0x1>
    1518:	80 81       	ld	r24, Z
    151a:	80 64       	ori	r24, 0x40	; 64
    151c:	80 83       	st	Z, r24
    151e:	07 c0       	rjmp	.+14     	; 0x152e <LCD0_write+0x146>
    1520:	e0 91 00 03 	lds	r30, 0x0300	; 0x800300 <lcd0_PORT>
    1524:	f0 91 01 03 	lds	r31, 0x0301	; 0x800301 <lcd0_PORT+0x1>
    1528:	80 81       	ld	r24, Z
    152a:	8f 7b       	andi	r24, 0xBF	; 191
    152c:	80 83       	st	Z, r24
	if(c & 0x02) *lcd0_PORT |= 1 << DB5; else *lcd0_PORT &= ~(1 << DB5); LCD_ticks(BIT_N_TICKS);
    152e:	c1 ff       	sbrs	r28, 1
    1530:	08 c0       	rjmp	.+16     	; 0x1542 <LCD0_write+0x15a>
    1532:	e0 91 00 03 	lds	r30, 0x0300	; 0x800300 <lcd0_PORT>
    1536:	f0 91 01 03 	lds	r31, 0x0301	; 0x800301 <lcd0_PORT+0x1>
    153a:	80 81       	ld	r24, Z
    153c:	80 62       	ori	r24, 0x20	; 32
    153e:	80 83       	st	Z, r24
    1540:	07 c0       	rjmp	.+14     	; 0x1550 <LCD0_write+0x168>
    1542:	e0 91 00 03 	lds	r30, 0x0300	; 0x800300 <lcd0_PORT>
    1546:	f0 91 01 03 	lds	r31, 0x0301	; 0x800301 <lcd0_PORT+0x1>
    154a:	80 81       	ld	r24, Z
    154c:	8f 7d       	andi	r24, 0xDF	; 223
    154e:	80 83       	st	Z, r24
	if(c & 0x01) *lcd0_PORT |= 1 << DB4; else *lcd0_PORT &= ~(1 << DB4); LCD_ticks(BIT_N_TICKS);
    1550:	c0 ff       	sbrs	r28, 0
    1552:	08 c0       	rjmp	.+16     	; 0x1564 <LCD0_write+0x17c>
    1554:	e0 91 00 03 	lds	r30, 0x0300	; 0x800300 <lcd0_PORT>
    1558:	f0 91 01 03 	lds	r31, 0x0301	; 0x800301 <lcd0_PORT+0x1>
    155c:	80 81       	ld	r24, Z
    155e:	80 61       	ori	r24, 0x10	; 16
    1560:	80 83       	st	Z, r24
    1562:	07 c0       	rjmp	.+14     	; 0x1572 <LCD0_write+0x18a>
    1564:	e0 91 00 03 	lds	r30, 0x0300	; 0x800300 <lcd0_PORT>
    1568:	f0 91 01 03 	lds	r31, 0x0301	; 0x800301 <lcd0_PORT+0x1>
    156c:	80 81       	ld	r24, Z
    156e:	8f 7e       	andi	r24, 0xEF	; 239
    1570:	80 83       	st	Z, r24
	
	*lcd0_PORT &= ~(1 << EN); LCD_ticks(LCD_N_TICKS);
    1572:	e0 91 00 03 	lds	r30, 0x0300	; 0x800300 <lcd0_PORT>
    1576:	f0 91 01 03 	lds	r31, 0x0301	; 0x800301 <lcd0_PORT+0x1>
    157a:	80 81       	ld	r24, Z
    157c:	8b 7f       	andi	r24, 0xFB	; 251
    157e:	80 83       	st	Z, r24
}
    1580:	cf 91       	pop	r28
    1582:	1f 91       	pop	r17
    1584:	0f 91       	pop	r16
    1586:	08 95       	ret

00001588 <LCD0_clear>:
		LCD0_putch(' ');
	}
}
void LCD0_clear(void)
{
	LCD0_write(0x01, INST);
    1588:	60 e0       	ldi	r22, 0x00	; 0
    158a:	70 e0       	ldi	r23, 0x00	; 0
    158c:	81 e0       	ldi	r24, 0x01	; 1
    158e:	0e 94 f4 09 	call	0x13e8	; 0x13e8 <LCD0_write>
	#else
		//round up by default
		__ticks_dc = (uint32_t)(ceil(fabs(__tmp)));
	#endif

	__builtin_avr_delay_cycles(__ticks_dc);
    1592:	87 ee       	ldi	r24, 0xE7	; 231
    1594:	97 e1       	ldi	r25, 0x17	; 23
    1596:	01 97       	sbiw	r24, 0x01	; 1
    1598:	f1 f7       	brne	.-4      	; 0x1596 <LCD0_clear+0xe>
    159a:	00 c0       	rjmp	.+0      	; 0x159c <LCD0_clear+0x14>
    159c:	00 00       	nop
    159e:	08 95       	ret

000015a0 <LCD0_read>:
	if(c & 0x01) *lcd0_PORT |= 1 << DB4; else *lcd0_PORT &= ~(1 << DB4); LCD_ticks(BIT_N_TICKS);
	
	*lcd0_PORT &= ~(1 << EN); LCD_ticks(LCD_N_TICKS);
}
char LCD0_read(unsigned short D_I)
{
    15a0:	0f 93       	push	r16
    15a2:	1f 93       	push	r17
    15a4:	cf 93       	push	r28
    15a6:	8c 01       	movw	r16, r24
	char c = 0x00;
	*lcd0_DDR &= ~((1 << DB4) | (1 << DB5) | (1 << DB6) | (1 << DB7)); // mcu as input
    15a8:	e0 91 fd 02 	lds	r30, 0x02FD	; 0x8002fd <lcd0_DDR>
    15ac:	f0 91 fe 02 	lds	r31, 0x02FE	; 0x8002fe <lcd0_DDR+0x1>
    15b0:	80 81       	ld	r24, Z
    15b2:	8f 70       	andi	r24, 0x0F	; 15
    15b4:	80 83       	st	Z, r24
	*lcd0_PORT |= (1 << DB4) | (1 << DB5) | (1 << DB6) | (1 << DB7); // pull up resistors
    15b6:	e0 91 00 03 	lds	r30, 0x0300	; 0x800300 <lcd0_PORT>
    15ba:	f0 91 01 03 	lds	r31, 0x0301	; 0x800301 <lcd0_PORT+0x1>
    15be:	80 81       	ld	r24, Z
    15c0:	80 6f       	ori	r24, 0xF0	; 240
    15c2:	80 83       	st	Z, r24
	*lcd0_PORT |= (1 << RW); // lcd as output
    15c4:	e0 91 00 03 	lds	r30, 0x0300	; 0x800300 <lcd0_PORT>
    15c8:	f0 91 01 03 	lds	r31, 0x0301	; 0x800301 <lcd0_PORT+0x1>
    15cc:	80 81       	ld	r24, Z
    15ce:	82 60       	ori	r24, 0x02	; 2
    15d0:	80 83       	st	Z, r24
	
	if(D_I) *lcd0_PORT |= (1 << RS); else *lcd0_PORT &= ~(1 << RS);
    15d2:	01 15       	cp	r16, r1
    15d4:	11 05       	cpc	r17, r1
    15d6:	41 f0       	breq	.+16     	; 0x15e8 <LCD0_read+0x48>
    15d8:	e0 91 00 03 	lds	r30, 0x0300	; 0x800300 <lcd0_PORT>
    15dc:	f0 91 01 03 	lds	r31, 0x0301	; 0x800301 <lcd0_PORT+0x1>
    15e0:	80 81       	ld	r24, Z
    15e2:	81 60       	ori	r24, 0x01	; 1
    15e4:	80 83       	st	Z, r24
    15e6:	07 c0       	rjmp	.+14     	; 0x15f6 <LCD0_read+0x56>
    15e8:	e0 91 00 03 	lds	r30, 0x0300	; 0x800300 <lcd0_PORT>
    15ec:	f0 91 01 03 	lds	r31, 0x0301	; 0x800301 <lcd0_PORT+0x1>
    15f0:	80 81       	ld	r24, Z
    15f2:	8e 7f       	andi	r24, 0xFE	; 254
    15f4:	80 83       	st	Z, r24
	LCD0_strobe(LCD_N_TICKS); LCD_ticks(BIT_N_TICKS);
    15f6:	80 e0       	ldi	r24, 0x00	; 0
    15f8:	90 e0       	ldi	r25, 0x00	; 0
    15fa:	0e 94 e5 09 	call	0x13ca	; 0x13ca <LCD0_strobe>
	
	if(*lcd0_PIN & (1 << DB7)) c |= 1 << 7; else c &= ~(1 << 7); LCD_ticks(BIT_N_TICKS);
    15fe:	e0 91 f6 02 	lds	r30, 0x02F6	; 0x8002f6 <lcd0_PIN>
    1602:	f0 91 f7 02 	lds	r31, 0x02F7	; 0x8002f7 <lcd0_PIN+0x1>
    1606:	80 81       	ld	r24, Z
    1608:	88 23       	and	r24, r24
    160a:	14 f0       	brlt	.+4      	; 0x1610 <LCD0_read+0x70>
    160c:	c0 e0       	ldi	r28, 0x00	; 0
    160e:	01 c0       	rjmp	.+2      	; 0x1612 <LCD0_read+0x72>
    1610:	c0 e8       	ldi	r28, 0x80	; 128
	if(*lcd0_PIN & (1 << DB6)) c |= 1 << 6; else c &= ~(1 << 6); LCD_ticks(BIT_N_TICKS);
    1612:	80 81       	ld	r24, Z
    1614:	86 ff       	sbrs	r24, 6
    1616:	02 c0       	rjmp	.+4      	; 0x161c <LCD0_read+0x7c>
    1618:	c0 64       	ori	r28, 0x40	; 64
    161a:	01 c0       	rjmp	.+2      	; 0x161e <LCD0_read+0x7e>
    161c:	cf 7b       	andi	r28, 0xBF	; 191
	if(*lcd0_PIN & (1 << DB5)) c |= 1 << 5; else c &= ~(1 << 5); LCD_ticks(BIT_N_TICKS);
    161e:	80 81       	ld	r24, Z
    1620:	85 ff       	sbrs	r24, 5
    1622:	02 c0       	rjmp	.+4      	; 0x1628 <LCD0_read+0x88>
    1624:	c0 62       	ori	r28, 0x20	; 32
    1626:	01 c0       	rjmp	.+2      	; 0x162a <LCD0_read+0x8a>
    1628:	cf 7d       	andi	r28, 0xDF	; 223
	if(*lcd0_PIN & (1 << DB4)) c |= 1 << 4; else c &= ~(1 << 4); LCD_ticks(BIT_N_TICKS);
    162a:	80 81       	ld	r24, Z
    162c:	84 ff       	sbrs	r24, 4
    162e:	02 c0       	rjmp	.+4      	; 0x1634 <LCD0_read+0x94>
    1630:	c0 61       	ori	r28, 0x10	; 16
    1632:	01 c0       	rjmp	.+2      	; 0x1636 <LCD0_read+0x96>
    1634:	cf 7e       	andi	r28, 0xEF	; 239
	
	if(D_I) *lcd0_PORT |= (1 << RS); else *lcd0_PORT &= ~(1 << RS);
    1636:	01 2b       	or	r16, r17
    1638:	41 f0       	breq	.+16     	; 0x164a <LCD0_read+0xaa>
    163a:	e0 91 00 03 	lds	r30, 0x0300	; 0x800300 <lcd0_PORT>
    163e:	f0 91 01 03 	lds	r31, 0x0301	; 0x800301 <lcd0_PORT+0x1>
    1642:	80 81       	ld	r24, Z
    1644:	81 60       	ori	r24, 0x01	; 1
    1646:	80 83       	st	Z, r24
    1648:	07 c0       	rjmp	.+14     	; 0x1658 <LCD0_read+0xb8>
    164a:	e0 91 00 03 	lds	r30, 0x0300	; 0x800300 <lcd0_PORT>
    164e:	f0 91 01 03 	lds	r31, 0x0301	; 0x800301 <lcd0_PORT+0x1>
    1652:	80 81       	ld	r24, Z
    1654:	8e 7f       	andi	r24, 0xFE	; 254
    1656:	80 83       	st	Z, r24
	LCD0_strobe(LCD_N_TICKS); LCD_ticks(BIT_N_TICKS);
    1658:	80 e0       	ldi	r24, 0x00	; 0
    165a:	90 e0       	ldi	r25, 0x00	; 0
    165c:	0e 94 e5 09 	call	0x13ca	; 0x13ca <LCD0_strobe>
	
	if(*lcd0_PIN & (1 << DB7)) c |= 1 << 3; else c &= ~(1 << 3); LCD_ticks(BIT_N_TICKS);
    1660:	e0 91 f6 02 	lds	r30, 0x02F6	; 0x8002f6 <lcd0_PIN>
    1664:	f0 91 f7 02 	lds	r31, 0x02F7	; 0x8002f7 <lcd0_PIN+0x1>
    1668:	80 81       	ld	r24, Z
    166a:	88 23       	and	r24, r24
    166c:	1c f4       	brge	.+6      	; 0x1674 <LCD0_read+0xd4>
    166e:	8c 2f       	mov	r24, r28
    1670:	88 60       	ori	r24, 0x08	; 8
    1672:	02 c0       	rjmp	.+4      	; 0x1678 <LCD0_read+0xd8>
    1674:	8c 2f       	mov	r24, r28
    1676:	87 7f       	andi	r24, 0xF7	; 247
	if(*lcd0_PIN & (1 << DB6)) c |= 1 << 2; else c &= ~(1 << 2); LCD_ticks(BIT_N_TICKS);
    1678:	90 81       	ld	r25, Z
    167a:	96 ff       	sbrs	r25, 6
    167c:	02 c0       	rjmp	.+4      	; 0x1682 <LCD0_read+0xe2>
    167e:	84 60       	ori	r24, 0x04	; 4
    1680:	01 c0       	rjmp	.+2      	; 0x1684 <LCD0_read+0xe4>
    1682:	8b 7f       	andi	r24, 0xFB	; 251
	if(*lcd0_PIN & (1 << DB5)) c |= 1 << 1; else c &= ~(1 << 1); LCD_ticks(BIT_N_TICKS);
    1684:	90 81       	ld	r25, Z
    1686:	95 ff       	sbrs	r25, 5
    1688:	02 c0       	rjmp	.+4      	; 0x168e <LCD0_read+0xee>
    168a:	82 60       	ori	r24, 0x02	; 2
    168c:	01 c0       	rjmp	.+2      	; 0x1690 <LCD0_read+0xf0>
    168e:	8d 7f       	andi	r24, 0xFD	; 253
	if(*lcd0_PIN & (1 << DB4)) c |= 1 << 0; else c &= ~(1 << 0); LCD_ticks(BIT_N_TICKS);
    1690:	90 81       	ld	r25, Z
    1692:	94 ff       	sbrs	r25, 4
    1694:	02 c0       	rjmp	.+4      	; 0x169a <LCD0_read+0xfa>
    1696:	81 60       	ori	r24, 0x01	; 1
    1698:	01 c0       	rjmp	.+2      	; 0x169c <LCD0_read+0xfc>
    169a:	8e 7f       	andi	r24, 0xFE	; 254
	
	*lcd0_PORT &= ~(1 << EN); LCD_ticks(LCD_N_TICKS);
    169c:	e0 91 00 03 	lds	r30, 0x0300	; 0x800300 <lcd0_PORT>
    16a0:	f0 91 01 03 	lds	r31, 0x0301	; 0x800301 <lcd0_PORT+0x1>
    16a4:	90 81       	ld	r25, Z
    16a6:	9b 7f       	andi	r25, 0xFB	; 251
    16a8:	90 83       	st	Z, r25
	
	return c;
}
    16aa:	cf 91       	pop	r28
    16ac:	1f 91       	pop	r17
    16ae:	0f 91       	pop	r16
    16b0:	08 95       	ret

000016b2 <LCD0_BF>:
// it has to read at minimum one equal and exit immediately if not equal, weird property.
{
	uint8_t i;
	char inst = 0x80;
	for(i=0; 0x80 & inst; i++){
		inst = LCD0_read(INST);
    16b2:	80 e0       	ldi	r24, 0x00	; 0
    16b4:	90 e0       	ldi	r25, 0x00	; 0
    16b6:	0e 94 d0 0a 	call	0x15a0	; 0x15a0 <LCD0_read>
void LCD0_BF(void)
// it has to read at minimum one equal and exit immediately if not equal, weird property.
{
	uint8_t i;
	char inst = 0x80;
	for(i=0; 0x80 & inst; i++){
    16ba:	88 23       	and	r24, r24
    16bc:	54 f4       	brge	.+20     	; 0x16d2 <LCD0_BF+0x20>
		inst = LCD0_read(INST);
    16be:	80 e0       	ldi	r24, 0x00	; 0
    16c0:	90 e0       	ldi	r25, 0x00	; 0
    16c2:	0e 94 d0 0a 	call	0x15a0	; 0x15a0 <LCD0_read>
void LCD0_BF(void)
// it has to read at minimum one equal and exit immediately if not equal, weird property.
{
	uint8_t i;
	char inst = 0x80;
	for(i=0; 0x80 & inst; i++){
    16c6:	88 23       	and	r24, r24
    16c8:	24 f4       	brge	.+8      	; 0x16d2 <LCD0_BF+0x20>
		inst = LCD0_read(INST);
    16ca:	80 e0       	ldi	r24, 0x00	; 0
    16cc:	90 e0       	ldi	r25, 0x00	; 0
    16ce:	0e 94 d0 0a 	call	0x15a0	; 0x15a0 <LCD0_read>
    16d2:	08 95       	ret

000016d4 <LCD0_putch>:
	LCD0_BF();
	return c;
}
void LCD0_putch(char c)
{
	LCD0_write(c, DATA);
    16d4:	61 e0       	ldi	r22, 0x01	; 1
    16d6:	70 e0       	ldi	r23, 0x00	; 0
    16d8:	0e 94 f4 09 	call	0x13e8	; 0x13e8 <LCD0_write>
	LCD0_BF();
    16dc:	0e 94 59 0b 	call	0x16b2	; 0x16b2 <LCD0_BF>
    16e0:	08 95       	ret

000016e2 <LCD0_string>:
}
void LCD0_string(const char* s)
{
    16e2:	cf 93       	push	r28
    16e4:	df 93       	push	r29
    16e6:	ec 01       	movw	r28, r24
	char tmp;
	while(*s){
    16e8:	88 81       	ld	r24, Y
    16ea:	88 23       	and	r24, r24
    16ec:	31 f0       	breq	.+12     	; 0x16fa <LCD0_string+0x18>
    16ee:	21 96       	adiw	r28, 0x01	; 1
		tmp = *(s++);
		LCD0_putch(tmp);
    16f0:	0e 94 6a 0b 	call	0x16d4	; 0x16d4 <LCD0_putch>
	LCD0_BF();
}
void LCD0_string(const char* s)
{
	char tmp;
	while(*s){
    16f4:	89 91       	ld	r24, Y+
    16f6:	81 11       	cpse	r24, r1
    16f8:	fb cf       	rjmp	.-10     	; 0x16f0 <LCD0_string+0xe>
		tmp = *(s++);
		LCD0_putch(tmp);
	}
}
    16fa:	df 91       	pop	r29
    16fc:	cf 91       	pop	r28
    16fe:	08 95       	ret

00001700 <LCD0_string_size>:
void LCD0_string_size(const char* s, uint8_t size)
{
    1700:	0f 93       	push	r16
    1702:	1f 93       	push	r17
    1704:	cf 93       	push	r28
    1706:	df 93       	push	r29
    1708:	fc 01       	movw	r30, r24
    170a:	d6 2f       	mov	r29, r22
	char tmp;
	uint8_t pos = 0;
	while(*s){
    170c:	80 81       	ld	r24, Z
    170e:	88 23       	and	r24, r24
    1710:	51 f0       	breq	.+20     	; 0x1726 <LCD0_string_size+0x26>
		tmp=*(s++);
    1712:	8f 01       	movw	r16, r30
    1714:	0f 5f       	subi	r16, 0xFF	; 255
    1716:	1f 4f       	sbci	r17, 0xFF	; 255
		pos++;
		if(pos > size) // 1 TO SIZE+1
    1718:	61 11       	cpse	r22, r1
    171a:	09 c0       	rjmp	.+18     	; 0x172e <LCD0_string_size+0x2e>
    171c:	17 c0       	rjmp	.+46     	; 0x174c <LCD0_string_size+0x4c>
{
	char tmp;
	uint8_t pos = 0;
	while(*s){
		tmp=*(s++);
		pos++;
    171e:	cf 5f       	subi	r28, 0xFF	; 255
		if(pos > size) // 1 TO SIZE+1
    1720:	dc 17       	cp	r29, r28
    1722:	30 f4       	brcc	.+12     	; 0x1730 <LCD0_string_size+0x30>
    1724:	01 c0       	rjmp	.+2      	; 0x1728 <LCD0_string_size+0x28>
	}
}
void LCD0_string_size(const char* s, uint8_t size)
{
	char tmp;
	uint8_t pos = 0;
    1726:	c0 e0       	ldi	r28, 0x00	; 0
		pos++;
		if(pos > size) // 1 TO SIZE+1
			break;
		LCD0_putch(tmp);
	}
	while(pos<size){ // TO SIZE
    1728:	cd 17       	cp	r28, r29
    172a:	50 f0       	brcs	.+20     	; 0x1740 <LCD0_string_size+0x40>
    172c:	0f c0       	rjmp	.+30     	; 0x174c <LCD0_string_size+0x4c>
	char tmp;
	uint8_t pos = 0;
	while(*s){
		tmp=*(s++);
		pos++;
		if(pos > size) // 1 TO SIZE+1
    172e:	c1 e0       	ldi	r28, 0x01	; 1
			break;
		LCD0_putch(tmp);
    1730:	0e 94 6a 0b 	call	0x16d4	; 0x16d4 <LCD0_putch>
}
void LCD0_string_size(const char* s, uint8_t size)
{
	char tmp;
	uint8_t pos = 0;
	while(*s){
    1734:	f8 01       	movw	r30, r16
    1736:	81 91       	ld	r24, Z+
    1738:	8f 01       	movw	r16, r30
    173a:	81 11       	cpse	r24, r1
    173c:	f0 cf       	rjmp	.-32     	; 0x171e <LCD0_string_size+0x1e>
    173e:	f4 cf       	rjmp	.-24     	; 0x1728 <LCD0_string_size+0x28>
		if(pos > size) // 1 TO SIZE+1
			break;
		LCD0_putch(tmp);
	}
	while(pos<size){ // TO SIZE
		LCD0_putch(' ');
    1740:	80 e2       	ldi	r24, 0x20	; 32
    1742:	0e 94 6a 0b 	call	0x16d4	; 0x16d4 <LCD0_putch>
		pos++;
    1746:	cf 5f       	subi	r28, 0xFF	; 255
		pos++;
		if(pos > size) // 1 TO SIZE+1
			break;
		LCD0_putch(tmp);
	}
	while(pos<size){ // TO SIZE
    1748:	cd 17       	cp	r28, r29
    174a:	d0 f3       	brcs	.-12     	; 0x1740 <LCD0_string_size+0x40>
		LCD0_putch(' ');
		pos++;
	}
}
    174c:	df 91       	pop	r29
    174e:	cf 91       	pop	r28
    1750:	1f 91       	pop	r17
    1752:	0f 91       	pop	r16
    1754:	08 95       	ret

00001756 <LCD0_hspace>:
void LCD0_hspace(uint8_t n)
{
    1756:	cf 93       	push	r28
    1758:	c8 2f       	mov	r28, r24
	for(; n; n--){
    175a:	88 23       	and	r24, r24
    175c:	29 f0       	breq	.+10     	; 0x1768 <LCD0_hspace+0x12>
		LCD0_putch(' ');
    175e:	80 e2       	ldi	r24, 0x20	; 32
    1760:	0e 94 6a 0b 	call	0x16d4	; 0x16d4 <LCD0_putch>
		pos++;
	}
}
void LCD0_hspace(uint8_t n)
{
	for(; n; n--){
    1764:	c1 50       	subi	r28, 0x01	; 1
    1766:	d9 f7       	brne	.-10     	; 0x175e <LCD0_hspace+0x8>
		LCD0_putch(' ');
	}
}
    1768:	cf 91       	pop	r28
    176a:	08 95       	ret

0000176c <LCD0_gotoxy>:
{
	LCD0_write(0x01, INST);
    _delay_ms(1.53);
}
void LCD0_gotoxy(unsigned int y, unsigned int x)
{
    176c:	26 2f       	mov	r18, r22
	switch(y){
    176e:	81 30       	cpi	r24, 0x01	; 1
    1770:	91 05       	cpc	r25, r1
    1772:	81 f0       	breq	.+32     	; 0x1794 <LCD0_gotoxy+0x28>
    1774:	30 f0       	brcs	.+12     	; 0x1782 <LCD0_gotoxy+0x16>
    1776:	82 30       	cpi	r24, 0x02	; 2
    1778:	91 05       	cpc	r25, r1
    177a:	a9 f0       	breq	.+42     	; 0x17a6 <LCD0_gotoxy+0x3a>
    177c:	03 97       	sbiw	r24, 0x03	; 3
    177e:	e1 f0       	breq	.+56     	; 0x17b8 <LCD0_gotoxy+0x4c>
    1780:	08 95       	ret
		case 0:
			LCD0_write((0x80 + x), INST);
    1782:	60 e0       	ldi	r22, 0x00	; 0
    1784:	70 e0       	ldi	r23, 0x00	; 0
    1786:	80 e8       	ldi	r24, 0x80	; 128
    1788:	82 0f       	add	r24, r18
    178a:	0e 94 f4 09 	call	0x13e8	; 0x13e8 <LCD0_write>
			LCD0_BF();
    178e:	0e 94 59 0b 	call	0x16b2	; 0x16b2 <LCD0_BF>
		break;
    1792:	08 95       	ret
		case 1:
			LCD0_write((0xC0 + x), INST);
    1794:	60 e0       	ldi	r22, 0x00	; 0
    1796:	70 e0       	ldi	r23, 0x00	; 0
    1798:	80 ec       	ldi	r24, 0xC0	; 192
    179a:	82 0f       	add	r24, r18
    179c:	0e 94 f4 09 	call	0x13e8	; 0x13e8 <LCD0_write>
			LCD0_BF();
    17a0:	0e 94 59 0b 	call	0x16b2	; 0x16b2 <LCD0_BF>
		break;
    17a4:	08 95       	ret
		case 2:
			LCD0_write((0x94 + x), INST); // 0x94
    17a6:	60 e0       	ldi	r22, 0x00	; 0
    17a8:	70 e0       	ldi	r23, 0x00	; 0
    17aa:	84 e9       	ldi	r24, 0x94	; 148
    17ac:	82 0f       	add	r24, r18
    17ae:	0e 94 f4 09 	call	0x13e8	; 0x13e8 <LCD0_write>
			LCD0_BF();
    17b2:	0e 94 59 0b 	call	0x16b2	; 0x16b2 <LCD0_BF>
		break;
    17b6:	08 95       	ret
		case 3:
			LCD0_write((0xD4 + x), INST); // 0xD4
    17b8:	60 e0       	ldi	r22, 0x00	; 0
    17ba:	70 e0       	ldi	r23, 0x00	; 0
    17bc:	84 ed       	ldi	r24, 0xD4	; 212
    17be:	82 0f       	add	r24, r18
    17c0:	0e 94 f4 09 	call	0x13e8	; 0x13e8 <LCD0_write>
			LCD0_BF();
    17c4:	0e 94 59 0b 	call	0x16b2	; 0x16b2 <LCD0_BF>
    17c8:	08 95       	ret

000017ca <LCD0_inic>:
	return lcd0;
}
void LCD0_inic(void)
{
	// LCD INIC
	*lcd0_DDR = (1 << RS) | (1 << RW) | (1 << EN) | (0 << NC);
    17ca:	e0 91 fd 02 	lds	r30, 0x02FD	; 0x8002fd <lcd0_DDR>
    17ce:	f0 91 fe 02 	lds	r31, 0x02FE	; 0x8002fe <lcd0_DDR+0x1>
    17d2:	87 e0       	ldi	r24, 0x07	; 7
    17d4:	80 83       	st	Z, r24
	*lcd0_PORT = (1 << NC);
    17d6:	e0 91 00 03 	lds	r30, 0x0300	; 0x800300 <lcd0_PORT>
    17da:	f0 91 01 03 	lds	r31, 0x0301	; 0x800301 <lcd0_PORT+0x1>
    17de:	88 e0       	ldi	r24, 0x08	; 8
    17e0:	80 83       	st	Z, r24
    17e2:	2f ef       	ldi	r18, 0xFF	; 255
    17e4:	83 ef       	ldi	r24, 0xF3	; 243
    17e6:	91 e0       	ldi	r25, 0x01	; 1
    17e8:	21 50       	subi	r18, 0x01	; 1
    17ea:	80 40       	sbci	r24, 0x00	; 0
    17ec:	90 40       	sbci	r25, 0x00	; 0
    17ee:	e1 f7       	brne	.-8      	; 0x17e8 <LCD0_inic+0x1e>
    17f0:	00 c0       	rjmp	.+0      	; 0x17f2 <LCD0_inic+0x28>
    17f2:	00 00       	nop
	// INICIALIZACAO LCD datasheet/
	_delay_ms(40); // using clock at 16Mhz
	LCD0_write(0x38, INST); // function set
    17f4:	60 e0       	ldi	r22, 0x00	; 0
    17f6:	70 e0       	ldi	r23, 0x00	; 0
    17f8:	88 e3       	ldi	r24, 0x38	; 56
    17fa:	0e 94 f4 09 	call	0x13e8	; 0x13e8 <LCD0_write>
	#else
		//round up by default
		__ticks_dc = (uint32_t)(ceil(fabs(__tmp)));
	#endif

	__builtin_avr_delay_cycles(__ticks_dc);
    17fe:	20 ed       	ldi	r18, 0xD0	; 208
    1800:	2a 95       	dec	r18
    1802:	f1 f7       	brne	.-4      	; 0x1800 <LCD0_inic+0x36>
	_delay_us(39);
	LCD0_write(0x38, INST); // function set
    1804:	60 e0       	ldi	r22, 0x00	; 0
    1806:	70 e0       	ldi	r23, 0x00	; 0
    1808:	88 e3       	ldi	r24, 0x38	; 56
    180a:	0e 94 f4 09 	call	0x13e8	; 0x13e8 <LCD0_write>
    180e:	80 ed       	ldi	r24, 0xD0	; 208
    1810:	8a 95       	dec	r24
    1812:	f1 f7       	brne	.-4      	; 0x1810 <LCD0_inic+0x46>
	_delay_us(39);
	LCD0_write(0x38, INST); // function set
    1814:	60 e0       	ldi	r22, 0x00	; 0
    1816:	70 e0       	ldi	r23, 0x00	; 0
    1818:	88 e3       	ldi	r24, 0x38	; 56
    181a:	0e 94 f4 09 	call	0x13e8	; 0x13e8 <LCD0_write>
    181e:	90 ed       	ldi	r25, 0xD0	; 208
    1820:	9a 95       	dec	r25
    1822:	f1 f7       	brne	.-4      	; 0x1820 <LCD0_inic+0x56>
	_delay_us(39);
	LCD0_write(0x28, INST); // function set 2B
    1824:	60 e0       	ldi	r22, 0x00	; 0
    1826:	70 e0       	ldi	r23, 0x00	; 0
    1828:	88 e2       	ldi	r24, 0x28	; 40
    182a:	0e 94 f4 09 	call	0x13e8	; 0x13e8 <LCD0_write>
    182e:	25 ec       	ldi	r18, 0xC5	; 197
    1830:	2a 95       	dec	r18
    1832:	f1 f7       	brne	.-4      	; 0x1830 <LCD0_inic+0x66>
    1834:	00 00       	nop
	_delay_us(37);
	LCD0_write(0x28, INST); // function set 2B
    1836:	60 e0       	ldi	r22, 0x00	; 0
    1838:	70 e0       	ldi	r23, 0x00	; 0
    183a:	88 e2       	ldi	r24, 0x28	; 40
    183c:	0e 94 f4 09 	call	0x13e8	; 0x13e8 <LCD0_write>
    1840:	85 ec       	ldi	r24, 0xC5	; 197
    1842:	8a 95       	dec	r24
    1844:	f1 f7       	brne	.-4      	; 0x1842 <LCD0_inic+0x78>
    1846:	00 00       	nop
	_delay_us(37);
	/**************************************/
	// for(repeat = 2 ; repeat ; repeat--){
	// repeat twice in 4 bit length
	LCD0_write(0x28, INST); // function set 2B
    1848:	60 e0       	ldi	r22, 0x00	; 0
    184a:	70 e0       	ldi	r23, 0x00	; 0
    184c:	88 e2       	ldi	r24, 0x28	; 40
    184e:	0e 94 f4 09 	call	0x13e8	; 0x13e8 <LCD0_write>
	LCD0_BF();
    1852:	0e 94 59 0b 	call	0x16b2	; 0x16b2 <LCD0_BF>
	LCD0_write(0x28, INST); // function set 2B
    1856:	60 e0       	ldi	r22, 0x00	; 0
    1858:	70 e0       	ldi	r23, 0x00	; 0
    185a:	88 e2       	ldi	r24, 0x28	; 40
    185c:	0e 94 f4 09 	call	0x13e8	; 0x13e8 <LCD0_write>
	LCD0_BF();
    1860:	0e 94 59 0b 	call	0x16b2	; 0x16b2 <LCD0_BF>

	LCD0_write(0x0C, INST);// display on/off control
    1864:	60 e0       	ldi	r22, 0x00	; 0
    1866:	70 e0       	ldi	r23, 0x00	; 0
    1868:	8c e0       	ldi	r24, 0x0C	; 12
    186a:	0e 94 f4 09 	call	0x13e8	; 0x13e8 <LCD0_write>
	LCD0_BF();
    186e:	0e 94 59 0b 	call	0x16b2	; 0x16b2 <LCD0_BF>
	LCD0_write(0x0C, INST);// display on/off control
    1872:	60 e0       	ldi	r22, 0x00	; 0
    1874:	70 e0       	ldi	r23, 0x00	; 0
    1876:	8c e0       	ldi	r24, 0x0C	; 12
    1878:	0e 94 f4 09 	call	0x13e8	; 0x13e8 <LCD0_write>
	LCD0_BF();
    187c:	0e 94 59 0b 	call	0x16b2	; 0x16b2 <LCD0_BF>

	LCD0_write(0x01, INST);// clear display
    1880:	60 e0       	ldi	r22, 0x00	; 0
    1882:	70 e0       	ldi	r23, 0x00	; 0
    1884:	81 e0       	ldi	r24, 0x01	; 1
    1886:	0e 94 f4 09 	call	0x13e8	; 0x13e8 <LCD0_write>
	LCD0_BF();
    188a:	0e 94 59 0b 	call	0x16b2	; 0x16b2 <LCD0_BF>
	LCD0_write(0x01, INST);// clear display
    188e:	60 e0       	ldi	r22, 0x00	; 0
    1890:	70 e0       	ldi	r23, 0x00	; 0
    1892:	81 e0       	ldi	r24, 0x01	; 1
    1894:	0e 94 f4 09 	call	0x13e8	; 0x13e8 <LCD0_write>
	LCD0_BF();
    1898:	0e 94 59 0b 	call	0x16b2	; 0x16b2 <LCD0_BF>

	LCD0_write(0x06, INST);// entry mode set (crazy settings)
    189c:	60 e0       	ldi	r22, 0x00	; 0
    189e:	70 e0       	ldi	r23, 0x00	; 0
    18a0:	86 e0       	ldi	r24, 0x06	; 6
    18a2:	0e 94 f4 09 	call	0x13e8	; 0x13e8 <LCD0_write>
	LCD0_BF();
    18a6:	0e 94 59 0b 	call	0x16b2	; 0x16b2 <LCD0_BF>
	LCD0_write(0x06, INST);// entry mode set (crazy settings)
    18aa:	60 e0       	ldi	r22, 0x00	; 0
    18ac:	70 e0       	ldi	r23, 0x00	; 0
    18ae:	86 e0       	ldi	r24, 0x06	; 6
    18b0:	0e 94 f4 09 	call	0x13e8	; 0x13e8 <LCD0_write>
	LCD0_BF();
    18b4:	0e 94 59 0b 	call	0x16b2	; 0x16b2 <LCD0_BF>
	// INICIALIZATION END
	// LCD0_write(0x1F, INST);// cursor or display shift
	// _delay_us(39);
	// LCD0_write(0x03, INST);// return home
	// _delay_ms(1.53);
	LCD0_gotoxy(0,0);
    18b8:	60 e0       	ldi	r22, 0x00	; 0
    18ba:	70 e0       	ldi	r23, 0x00	; 0
    18bc:	80 e0       	ldi	r24, 0x00	; 0
    18be:	90 e0       	ldi	r25, 0x00	; 0
    18c0:	0e 94 b6 0b 	call	0x176c	; 0x176c <LCD0_gotoxy>
    18c4:	08 95       	ret

000018c6 <LCD0enable>:
void LCD1_reboot(void);
void LCD_ticks(uint16_t num);

/***Procedure & Function***/
LCD0 LCD0enable(volatile uint8_t *ddr, volatile uint8_t *pin, volatile uint8_t *port)
{
    18c6:	cf 93       	push	r28
    18c8:	df 93       	push	r29
    18ca:	ec 01       	movw	r28, r24
	// LOCAL VARIABLES
	// ALLOCAO MEMORIA PARA Estrutura
	LCD0 lcd0;
	// import parameters
	lcd0_DDR = ddr;
    18cc:	70 93 fe 02 	sts	0x02FE, r23	; 0x8002fe <lcd0_DDR+0x1>
    18d0:	60 93 fd 02 	sts	0x02FD, r22	; 0x8002fd <lcd0_DDR>
	lcd0_PIN = pin;
    18d4:	50 93 f7 02 	sts	0x02F7, r21	; 0x8002f7 <lcd0_PIN+0x1>
    18d8:	40 93 f6 02 	sts	0x02F6, r20	; 0x8002f6 <lcd0_PIN>
	lcd0_PORT = port;
    18dc:	30 93 01 03 	sts	0x0301, r19	; 0x800301 <lcd0_PORT+0x1>
    18e0:	20 93 00 03 	sts	0x0300, r18	; 0x800300 <lcd0_PORT>
	// initialize variables
	*lcd0_DDR = 0x00;
    18e4:	fb 01       	movw	r30, r22
    18e6:	10 82       	st	Z, r1
	*lcd0_PORT = 0xFF;
    18e8:	e0 91 00 03 	lds	r30, 0x0300	; 0x800300 <lcd0_PORT>
    18ec:	f0 91 01 03 	lds	r31, 0x0301	; 0x800301 <lcd0_PORT+0x1>
    18f0:	8f ef       	ldi	r24, 0xFF	; 255
    18f2:	80 83       	st	Z, r24
	lcd0_detect = *lcd0_PIN & (1 << NC);
    18f4:	e0 91 f6 02 	lds	r30, 0x02F6	; 0x8002f6 <lcd0_PIN>
    18f8:	f0 91 f7 02 	lds	r31, 0x02F7	; 0x8002f7 <lcd0_PIN+0x1>
    18fc:	80 81       	ld	r24, Z
    18fe:	88 70       	andi	r24, 0x08	; 8
    1900:	80 93 ff 02 	sts	0x02FF, r24	; 0x8002ff <lcd0_detect>
	lcd0.hspace = LCD0_hspace;
	lcd0.clear = LCD0_clear;
	lcd0.gotoxy = LCD0_gotoxy;
	lcd0.reboot = LCD0_reboot;
	// LCD INIC
	LCD0_inic();
    1904:	0e 94 e5 0b 	call	0x17ca	; 0x17ca <LCD0_inic>
	//
	return lcd0;
    1908:	84 ef       	ldi	r24, 0xF4	; 244
    190a:	99 e0       	ldi	r25, 0x09	; 9
    190c:	99 83       	std	Y+1, r25	; 0x01
    190e:	88 83       	st	Y, r24
    1910:	80 ed       	ldi	r24, 0xD0	; 208
    1912:	9a e0       	ldi	r25, 0x0A	; 10
    1914:	9b 83       	std	Y+3, r25	; 0x03
    1916:	8a 83       	std	Y+2, r24	; 0x02
    1918:	89 e5       	ldi	r24, 0x59	; 89
    191a:	9b e0       	ldi	r25, 0x0B	; 11
    191c:	9d 83       	std	Y+5, r25	; 0x05
    191e:	8c 83       	std	Y+4, r24	; 0x04
    1920:	8a e6       	ldi	r24, 0x6A	; 106
    1922:	9b e0       	ldi	r25, 0x0B	; 11
    1924:	9f 83       	std	Y+7, r25	; 0x07
    1926:	8e 83       	std	Y+6, r24	; 0x06
    1928:	86 ec       	ldi	r24, 0xC6	; 198
    192a:	9c e0       	ldi	r25, 0x0C	; 12
    192c:	99 87       	std	Y+9, r25	; 0x09
    192e:	88 87       	std	Y+8, r24	; 0x08
    1930:	81 e7       	ldi	r24, 0x71	; 113
    1932:	9b e0       	ldi	r25, 0x0B	; 11
    1934:	9b 87       	std	Y+11, r25	; 0x0b
    1936:	8a 87       	std	Y+10, r24	; 0x0a
    1938:	80 e8       	ldi	r24, 0x80	; 128
    193a:	9b e0       	ldi	r25, 0x0B	; 11
    193c:	9d 87       	std	Y+13, r25	; 0x0d
    193e:	8c 87       	std	Y+12, r24	; 0x0c
    1940:	8b ea       	ldi	r24, 0xAB	; 171
    1942:	9b e0       	ldi	r25, 0x0B	; 11
    1944:	9f 87       	std	Y+15, r25	; 0x0f
    1946:	8e 87       	std	Y+14, r24	; 0x0e
    1948:	84 ec       	ldi	r24, 0xC4	; 196
    194a:	9a e0       	ldi	r25, 0x0A	; 10
    194c:	99 8b       	std	Y+17, r25	; 0x11
    194e:	88 8b       	std	Y+16, r24	; 0x10
    1950:	86 eb       	ldi	r24, 0xB6	; 182
    1952:	9b e0       	ldi	r25, 0x0B	; 11
    1954:	9b 8b       	std	Y+19, r25	; 0x13
    1956:	8a 8b       	std	Y+18, r24	; 0x12
    1958:	84 eb       	ldi	r24, 0xB4	; 180
    195a:	9c e0       	ldi	r25, 0x0C	; 12
    195c:	9d 8b       	std	Y+21, r25	; 0x15
    195e:	8c 8b       	std	Y+20, r24	; 0x14
}
    1960:	ce 01       	movw	r24, r28
    1962:	df 91       	pop	r29
    1964:	cf 91       	pop	r28
    1966:	08 95       	ret

00001968 <LCD0_reboot>:
	*lcd0_PORT &= ~(1 << EN);
	LCD_ticks(num);
	*lcd0_PORT |= (1 << EN);
}
void LCD0_reboot(void)
{
    1968:	cf 93       	push	r28
	// low high detect pin NC
	uint8_t i;
	uint8_t tmp;
	tmp = *lcd0_PIN & (1 << NC);
    196a:	e0 91 f6 02 	lds	r30, 0x02F6	; 0x8002f6 <lcd0_PIN>
    196e:	f0 91 f7 02 	lds	r31, 0x02F7	; 0x8002f7 <lcd0_PIN+0x1>
    1972:	c0 81       	ld	r28, Z
    1974:	c8 70       	andi	r28, 0x08	; 8
	i = tmp ^ lcd0_detect;
    1976:	80 91 ff 02 	lds	r24, 0x02FF	; 0x8002ff <lcd0_detect>
    197a:	8c 27       	eor	r24, r28
	i &= tmp;
	if(i)
    197c:	8c 23       	and	r24, r28
    197e:	11 f0       	breq	.+4      	; 0x1984 <LCD0_reboot+0x1c>
		LCD0_inic();
    1980:	0e 94 e5 0b 	call	0x17ca	; 0x17ca <LCD0_inic>
	lcd0_detect = tmp;
    1984:	c0 93 ff 02 	sts	0x02FF, r28	; 0x8002ff <lcd0_detect>
}
    1988:	cf 91       	pop	r28
    198a:	08 95       	ret

0000198c <LCD0_getch>:
		if(i > 1)
			break;
	}
}
char LCD0_getch(void)
{
    198c:	cf 93       	push	r28
	char c;
	c = LCD0_read(DATA);
    198e:	81 e0       	ldi	r24, 0x01	; 1
    1990:	90 e0       	ldi	r25, 0x00	; 0
    1992:	0e 94 d0 0a 	call	0x15a0	; 0x15a0 <LCD0_read>
    1996:	c8 2f       	mov	r28, r24
	LCD0_BF();
    1998:	0e 94 59 0b 	call	0x16b2	; 0x16b2 <LCD0_BF>
	return c;
}
    199c:	8c 2f       	mov	r24, r28
    199e:	cf 91       	pop	r28
    19a0:	08 95       	ret

000019a2 <LFSMquant>:
	}// End switch
	return status;
}
// uint16_t LFSMquant(struct lfsm *r)
uint16_t LFSMquant(struct lfsm *r)
{
    19a2:	af 92       	push	r10
    19a4:	bf 92       	push	r11
    19a6:	cf 92       	push	r12
    19a8:	df 92       	push	r13
    19aa:	ef 92       	push	r14
    19ac:	ff 92       	push	r15
    19ae:	0f 93       	push	r16
    19b0:	1f 93       	push	r17
    19b2:	cf 93       	push	r28
    19b4:	df 93       	push	r29
	uint16_t i1;
	uint8_t sizeblock = r->sizeblock;
    19b6:	dc 01       	movw	r26, r24
    19b8:	14 96       	adiw	r26, 0x04	; 4
    19ba:	cc 90       	ld	r12, X
    19bc:	14 97       	sbiw	r26, 0x04	; 4
	struct lfsmdata* pdata = &data;
	uint16_t programmed;
	for(i1 = 0, programmed = 0; i1 < r->sizeeeprom; i1++){
    19be:	12 96       	adiw	r26, 0x02	; 2
    19c0:	2d 91       	ld	r18, X+
    19c2:	3c 91       	ld	r19, X
    19c4:	13 97       	sbiw	r26, 0x03	; 3
    19c6:	23 2b       	or	r18, r19
    19c8:	21 f1       	breq	.+72     	; 0x1a12 <LFSMquant+0x70>
    19ca:	7c 01       	movw	r14, r24
    19cc:	d1 2c       	mov	r13, r1
    19ce:	00 e0       	ldi	r16, 0x00	; 0
    19d0:	10 e0       	ldi	r17, 0x00	; 0
    19d2:	a1 2c       	mov	r10, r1
    19d4:	b1 2c       	mov	r11, r1
    19d6:	c0 e0       	ldi	r28, 0x00	; 0
    19d8:	d0 e0       	ldi	r29, 0x00	; 0
		r->eprom->read_block(pdata, (const void*)(i1 * sizeblock), sizeblock);
    19da:	d7 01       	movw	r26, r14
    19dc:	ed 91       	ld	r30, X+
    19de:	fc 91       	ld	r31, X
    19e0:	00 8c       	ldd	r0, Z+24	; 0x18
    19e2:	f1 8d       	ldd	r31, Z+25	; 0x19
    19e4:	e0 2d       	mov	r30, r0
    19e6:	a6 01       	movw	r20, r12
    19e8:	b8 01       	movw	r22, r16
    19ea:	8f e0       	ldi	r24, 0x0F	; 15
    19ec:	93 e0       	ldi	r25, 0x03	; 3
    19ee:	09 95       	icall
		if(pdata->page != 0){ // Count memory used
    19f0:	80 91 0f 03 	lds	r24, 0x030F	; 0x80030f <data>
    19f4:	88 23       	and	r24, r24
    19f6:	19 f0       	breq	.+6      	; 0x19fe <LFSMquant+0x5c>
			programmed++;
    19f8:	bf ef       	ldi	r27, 0xFF	; 255
    19fa:	ab 1a       	sub	r10, r27
    19fc:	bb 0a       	sbc	r11, r27
{
	uint16_t i1;
	uint8_t sizeblock = r->sizeblock;
	struct lfsmdata* pdata = &data;
	uint16_t programmed;
	for(i1 = 0, programmed = 0; i1 < r->sizeeeprom; i1++){
    19fe:	21 96       	adiw	r28, 0x01	; 1
    1a00:	0c 0d       	add	r16, r12
    1a02:	1d 1d       	adc	r17, r13
    1a04:	f7 01       	movw	r30, r14
    1a06:	82 81       	ldd	r24, Z+2	; 0x02
    1a08:	93 81       	ldd	r25, Z+3	; 0x03
    1a0a:	c8 17       	cp	r28, r24
    1a0c:	d9 07       	cpc	r29, r25
    1a0e:	28 f3       	brcs	.-54     	; 0x19da <LFSMquant+0x38>
    1a10:	02 c0       	rjmp	.+4      	; 0x1a16 <LFSMquant+0x74>
    1a12:	a1 2c       	mov	r10, r1
    1a14:	b1 2c       	mov	r11, r1
		if(pdata->page != 0){ // Count memory used
			programmed++;
		}
	}
	return programmed;
}
    1a16:	c5 01       	movw	r24, r10
    1a18:	df 91       	pop	r29
    1a1a:	cf 91       	pop	r28
    1a1c:	1f 91       	pop	r17
    1a1e:	0f 91       	pop	r16
    1a20:	ff 90       	pop	r15
    1a22:	ef 90       	pop	r14
    1a24:	df 90       	pop	r13
    1a26:	cf 90       	pop	r12
    1a28:	bf 90       	pop	r11
    1a2a:	af 90       	pop	r10
    1a2c:	08 95       	ret

00001a2e <LFSMdeleteall>:
	}
	return status;
}
// uint8_t LFSMdeleteall(struct lfsm *r)
uint8_t LFSMdeleteall(struct lfsm *r)
{
    1a2e:	af 92       	push	r10
    1a30:	bf 92       	push	r11
    1a32:	cf 92       	push	r12
    1a34:	df 92       	push	r13
    1a36:	ef 92       	push	r14
    1a38:	ff 92       	push	r15
    1a3a:	0f 93       	push	r16
    1a3c:	1f 93       	push	r17
    1a3e:	cf 93       	push	r28
    1a40:	df 93       	push	r29
    1a42:	7c 01       	movw	r14, r24
	uint16_t i1;
	uint8_t status = 0;
	uint8_t sizeblock = r->sizeblock;
    1a44:	dc 01       	movw	r26, r24
    1a46:	14 96       	adiw	r26, 0x04	; 4
    1a48:	cc 90       	ld	r12, X
    1a4a:	14 97       	sbiw	r26, 0x04	; 4
	struct lfsmdata* pdata = &data;
	for(i1 = 0; i1 < r->sizeeeprom; i1++){
    1a4c:	12 96       	adiw	r26, 0x02	; 2
    1a4e:	8d 91       	ld	r24, X+
    1a50:	9c 91       	ld	r25, X
    1a52:	13 97       	sbiw	r26, 0x03	; 3
    1a54:	89 2b       	or	r24, r25
    1a56:	81 f1       	breq	.+96     	; 0x1ab8 <LFSMdeleteall+0x8a>
    1a58:	d1 2c       	mov	r13, r1
    1a5a:	c0 e0       	ldi	r28, 0x00	; 0
    1a5c:	d0 e0       	ldi	r29, 0x00	; 0
    1a5e:	a1 2c       	mov	r10, r1
    1a60:	00 e0       	ldi	r16, 0x00	; 0
    1a62:	10 e0       	ldi	r17, 0x00	; 0
		r->eprom->read_block(pdata, (const void*)(i1 * sizeblock), sizeblock);
		if(pdata->page){
			pdata->page = 0;
			r->eprom->update_block(pdata, (void*)(i1 * sizeblock), sizeblock);
			status = 1; // All deleted
    1a64:	bb 24       	eor	r11, r11
    1a66:	b3 94       	inc	r11
	uint16_t i1;
	uint8_t status = 0;
	uint8_t sizeblock = r->sizeblock;
	struct lfsmdata* pdata = &data;
	for(i1 = 0; i1 < r->sizeeeprom; i1++){
		r->eprom->read_block(pdata, (const void*)(i1 * sizeblock), sizeblock);
    1a68:	d7 01       	movw	r26, r14
    1a6a:	ed 91       	ld	r30, X+
    1a6c:	fc 91       	ld	r31, X
    1a6e:	00 8c       	ldd	r0, Z+24	; 0x18
    1a70:	f1 8d       	ldd	r31, Z+25	; 0x19
    1a72:	e0 2d       	mov	r30, r0
    1a74:	a6 01       	movw	r20, r12
    1a76:	be 01       	movw	r22, r28
    1a78:	8f e0       	ldi	r24, 0x0F	; 15
    1a7a:	93 e0       	ldi	r25, 0x03	; 3
    1a7c:	09 95       	icall
		if(pdata->page){
    1a7e:	80 91 0f 03 	lds	r24, 0x030F	; 0x80030f <data>
    1a82:	88 23       	and	r24, r24
    1a84:	71 f0       	breq	.+28     	; 0x1aa2 <LFSMdeleteall+0x74>
			pdata->page = 0;
    1a86:	10 92 0f 03 	sts	0x030F, r1	; 0x80030f <data>
			r->eprom->update_block(pdata, (void*)(i1 * sizeblock), sizeblock);
    1a8a:	d7 01       	movw	r26, r14
    1a8c:	ed 91       	ld	r30, X+
    1a8e:	fc 91       	ld	r31, X
    1a90:	04 8c       	ldd	r0, Z+28	; 0x1c
    1a92:	f5 8d       	ldd	r31, Z+29	; 0x1d
    1a94:	e0 2d       	mov	r30, r0
    1a96:	a6 01       	movw	r20, r12
    1a98:	be 01       	movw	r22, r28
    1a9a:	8f e0       	ldi	r24, 0x0F	; 15
    1a9c:	93 e0       	ldi	r25, 0x03	; 3
    1a9e:	09 95       	icall
			status = 1; // All deleted
    1aa0:	ab 2c       	mov	r10, r11
{
	uint16_t i1;
	uint8_t status = 0;
	uint8_t sizeblock = r->sizeblock;
	struct lfsmdata* pdata = &data;
	for(i1 = 0; i1 < r->sizeeeprom; i1++){
    1aa2:	0f 5f       	subi	r16, 0xFF	; 255
    1aa4:	1f 4f       	sbci	r17, 0xFF	; 255
    1aa6:	cc 0d       	add	r28, r12
    1aa8:	dd 1d       	adc	r29, r13
    1aaa:	f7 01       	movw	r30, r14
    1aac:	82 81       	ldd	r24, Z+2	; 0x02
    1aae:	93 81       	ldd	r25, Z+3	; 0x03
    1ab0:	08 17       	cp	r16, r24
    1ab2:	19 07       	cpc	r17, r25
    1ab4:	c8 f2       	brcs	.-78     	; 0x1a68 <LFSMdeleteall+0x3a>
    1ab6:	01 c0       	rjmp	.+2      	; 0x1aba <LFSMdeleteall+0x8c>
}
// uint8_t LFSMdeleteall(struct lfsm *r)
uint8_t LFSMdeleteall(struct lfsm *r)
{
	uint16_t i1;
	uint8_t status = 0;
    1ab8:	a1 2c       	mov	r10, r1
			pdata->page = 0;
			r->eprom->update_block(pdata, (void*)(i1 * sizeblock), sizeblock);
			status = 1; // All deleted
		}
	}
	r->output = 0;
    1aba:	d7 01       	movw	r26, r14
    1abc:	18 96       	adiw	r26, 0x08	; 8
    1abe:	1c 92       	st	X, r1
    1ac0:	1e 92       	st	-X, r1
    1ac2:	17 97       	sbiw	r26, 0x07	; 7
	r->status = 0;
    1ac4:	19 96       	adiw	r26, 0x09	; 9
    1ac6:	1c 92       	st	X, r1
	return status;
}
    1ac8:	8a 2d       	mov	r24, r10
    1aca:	df 91       	pop	r29
    1acc:	cf 91       	pop	r28
    1ace:	1f 91       	pop	r17
    1ad0:	0f 91       	pop	r16
    1ad2:	ff 90       	pop	r15
    1ad4:	ef 90       	pop	r14
    1ad6:	df 90       	pop	r13
    1ad8:	cf 90       	pop	r12
    1ada:	bf 90       	pop	r11
    1adc:	af 90       	pop	r10
    1ade:	08 95       	ret

00001ae0 <LFSMgetoutput>:
// uint16_t LFSMgetoutput(struct lfsm *r)
uint16_t LFSMgetoutput(struct lfsm *r)
{
	return r->output;
}
    1ae0:	fc 01       	movw	r30, r24
    1ae2:	87 81       	ldd	r24, Z+7	; 0x07
    1ae4:	90 85       	ldd	r25, Z+8	; 0x08
    1ae6:	08 95       	ret

00001ae8 <LFSMgetstatus>:
// uint8_t LFSMgetstatus(struct lfsm *r)
uint8_t LFSMgetstatus(struct lfsm *r)
{
	return r->status;
}
    1ae8:	fc 01       	movw	r30, r24
    1aea:	81 85       	ldd	r24, Z+9	; 0x09
    1aec:	08 95       	ret

00001aee <LFSMsetoutput>:
// void LFSMsetoutput(struct lfsm *r, uint16_t output)
void LFSMsetoutput(struct lfsm *r, uint16_t output)
{
	r->output = output;
    1aee:	fc 01       	movw	r30, r24
    1af0:	70 87       	std	Z+8, r23	; 0x08
    1af2:	67 83       	std	Z+7, r22	; 0x07
	r->status = 0;
    1af4:	11 86       	std	Z+9, r1	; 0x09
    1af6:	08 95       	ret

00001af8 <LFSMgetpage>:
}
// uint8_t LFSMgetpage(struct lfsm *r)
uint8_t LFSMgetpage(struct lfsm *r)
{
	return r->page;
}
    1af8:	fc 01       	movw	r30, r24
    1afa:	85 81       	ldd	r24, Z+5	; 0x05
    1afc:	08 95       	ret

00001afe <LFSMsetpage>:
// void LFSMsetpage(struct lfsm *r, uint8_t page)
void LFSMsetpage(struct lfsm *r, uint8_t page)
{
	r->page=page;
    1afe:	fc 01       	movw	r30, r24
    1b00:	65 83       	std	Z+5, r22	; 0x05
    1b02:	08 95       	ret

00001b04 <LFSMread>:
	r.setpage = LFSMsetpage;
	return r;
}
// uint8_t LFSMread(struct lfsm *r, uint8_t input)
uint8_t LFSMread(struct lfsm *r, uint8_t input)
{
    1b04:	2f 92       	push	r2
    1b06:	3f 92       	push	r3
    1b08:	4f 92       	push	r4
    1b0a:	5f 92       	push	r5
    1b0c:	6f 92       	push	r6
    1b0e:	7f 92       	push	r7
    1b10:	8f 92       	push	r8
    1b12:	9f 92       	push	r9
    1b14:	af 92       	push	r10
    1b16:	bf 92       	push	r11
    1b18:	cf 92       	push	r12
    1b1a:	df 92       	push	r13
    1b1c:	ef 92       	push	r14
    1b1e:	ff 92       	push	r15
    1b20:	0f 93       	push	r16
    1b22:	1f 93       	push	r17
    1b24:	cf 93       	push	r28
    1b26:	df 93       	push	r29
    1b28:	8c 01       	movw	r16, r24
    1b2a:	76 2e       	mov	r7, r22
	struct lfsmdata* pdata = &data;
	int16_t n = 0;
	uint8_t n1 = NPAGES, n2 = NPAGES;
	uint8_t page = r->page;
	uint16_t HL, LH;
	HL = LFSMhl(r->input, input);
    1b2c:	dc 01       	movw	r26, r24
    1b2e:	16 96       	adiw	r26, 0x06	; 6
    1b30:	cc 90       	ld	r12, X
    1b32:	a6 2e       	mov	r10, r22
    1b34:	ac 24       	eor	r10, r12
// uint16_t LFSMhl(uint16_t xi, uint16_t xf)
uint16_t LFSMhl(uint16_t xi, uint16_t xf)
{
	uint16_t i;
	i = xf ^ xi;
	i &= xi;
    1b36:	ca 20       	and	r12, r10
    1b38:	d1 2c       	mov	r13, r1
// uint16_t LFSMlh(uint16_t xi, uint16_t xf)***/
uint16_t LFSMlh(uint16_t xi, uint16_t xf)
{
	uint16_t i;
	i = xf ^ xi;
	i &= xf;
    1b3a:	a6 22       	and	r10, r22
    1b3c:	b1 2c       	mov	r11, r1
	uint8_t n1 = NPAGES, n2 = NPAGES;
	uint8_t page = r->page;
	uint16_t HL, LH;
	HL = LFSMhl(r->input, input);
	LH = LFSMlh(r->input, input);
	if(HL || LH){ // To not waste time
    1b3e:	c1 14       	cp	r12, r1
    1b40:	d1 04       	cpc	r13, r1
    1b42:	31 f0       	breq	.+12     	; 0x1b50 <LFSMread+0x4c>
		status = 1; // New entry
		for(i1 = 0; i1 < r->sizeeeprom; i1++){
    1b44:	f8 01       	movw	r30, r16
    1b46:	82 81       	ldd	r24, Z+2	; 0x02
    1b48:	93 81       	ldd	r25, Z+3	; 0x03
    1b4a:	89 2b       	or	r24, r25
    1b4c:	29 f4       	brne	.+10     	; 0x1b58 <LFSMread+0x54>
    1b4e:	b3 c0       	rjmp	.+358    	; 0x1cb6 <LFSMread+0x1b2>
	uint8_t n1 = NPAGES, n2 = NPAGES;
	uint8_t page = r->page;
	uint16_t HL, LH;
	HL = LFSMhl(r->input, input);
	LH = LFSMlh(r->input, input);
	if(HL || LH){ // To not waste time
    1b50:	a1 14       	cp	r10, r1
    1b52:	b1 04       	cpc	r11, r1
    1b54:	b9 f7       	brne	.-18     	; 0x1b44 <LFSMread+0x40>
    1b56:	4a c1       	rjmp	.+660    	; 0x1dec <LFSMread+0x2e8>
// uint8_t LFSMread(struct lfsm *r, uint8_t input)
uint8_t LFSMread(struct lfsm *r, uint8_t input)
{
	uint16_t i1;
	uint8_t status = 0;
	uint8_t sizeblock = r->sizeblock;
    1b58:	e4 80       	ldd	r14, Z+4	; 0x04
	struct lfsmdata* pdata = &data;
	int16_t n = 0;
	uint8_t n1 = NPAGES, n2 = NPAGES;
	uint8_t page = r->page;
    1b5a:	55 80       	ldd	r5, Z+5	; 0x05
    1b5c:	33 24       	eor	r3, r3
    1b5e:	3a 94       	dec	r3
    1b60:	44 24       	eor	r4, r4
    1b62:	4a 94       	dec	r4
    1b64:	66 24       	eor	r6, r6
    1b66:	63 94       	inc	r6
    1b68:	c0 e0       	ldi	r28, 0x00	; 0
    1b6a:	d0 e0       	ldi	r29, 0x00	; 0
	HL = LFSMhl(r->input, input);
	LH = LFSMlh(r->input, input);
	if(HL || LH){ // To not waste time
		status = 1; // New entry
		for(i1 = 0; i1 < r->sizeeeprom; i1++){
			r->eprom->read_block(pdata, (const void*)(i1 * sizeblock), sizeblock);
    1b6c:	f1 2c       	mov	r15, r1
							status = 2; // Global logic exist
					}
				break;
				default: // Local logic
					if( (pdata->feedback & pdata->mask) == (r->output & pdata->mask) && pdata->inhl == HL && pdata->inlh == LH ){
						n = pdata->page - page;	
    1b6e:	85 2c       	mov	r8, r5
    1b70:	91 2c       	mov	r9, r1
					// Do nothing, continue search in status=1.
				break;
				case 1: // Global logic
					if( pdata->inhl == HL && pdata->inlh == LH ){
							i1 = r->sizeeeprom; // exit search
							status = 2; // Global logic exist
    1b72:	68 94       	set
    1b74:	22 24       	eor	r2, r2
    1b76:	21 f8       	bld	r2, 1
	HL = LFSMhl(r->input, input);
	LH = LFSMlh(r->input, input);
	if(HL || LH){ // To not waste time
		status = 1; // New entry
		for(i1 = 0; i1 < r->sizeeeprom; i1++){
			r->eprom->read_block(pdata, (const void*)(i1 * sizeblock), sizeblock);
    1b78:	ec 9e       	mul	r14, r28
    1b7a:	b0 01       	movw	r22, r0
    1b7c:	ed 9e       	mul	r14, r29
    1b7e:	70 0d       	add	r23, r0
    1b80:	fc 9e       	mul	r15, r28
    1b82:	70 0d       	add	r23, r0
    1b84:	11 24       	eor	r1, r1
    1b86:	d8 01       	movw	r26, r16
    1b88:	ed 91       	ld	r30, X+
    1b8a:	fc 91       	ld	r31, X
    1b8c:	00 8c       	ldd	r0, Z+24	; 0x18
    1b8e:	f1 8d       	ldd	r31, Z+25	; 0x19
    1b90:	e0 2d       	mov	r30, r0
    1b92:	a7 01       	movw	r20, r14
    1b94:	8f e0       	ldi	r24, 0x0F	; 15
    1b96:	93 e0       	ldi	r25, 0x03	; 3
    1b98:	09 95       	icall
			switch(pdata->page){
    1b9a:	80 91 0f 03 	lds	r24, 0x030F	; 0x80030f <data>
    1b9e:	88 23       	and	r24, r24
    1ba0:	09 f4       	brne	.+2      	; 0x1ba4 <LFSMread+0xa0>
    1ba2:	70 c0       	rjmp	.+224    	; 0x1c84 <LFSMread+0x180>
    1ba4:	81 30       	cpi	r24, 0x01	; 1
    1ba6:	99 f4       	brne	.+38     	; 0x1bce <LFSMread+0xca>
				case 0:
					// Do nothing, continue search in status=1.
				break;
				case 1: // Global logic
					if( pdata->inhl == HL && pdata->inlh == LH ){
    1ba8:	20 91 12 03 	lds	r18, 0x0312	; 0x800312 <data+0x3>
    1bac:	30 e0       	ldi	r19, 0x00	; 0
    1bae:	2c 15       	cp	r18, r12
    1bb0:	3d 05       	cpc	r19, r13
    1bb2:	09 f0       	breq	.+2      	; 0x1bb6 <LFSMread+0xb2>
    1bb4:	67 c0       	rjmp	.+206    	; 0x1c84 <LFSMread+0x180>
    1bb6:	20 91 13 03 	lds	r18, 0x0313	; 0x800313 <data+0x4>
    1bba:	30 e0       	ldi	r19, 0x00	; 0
    1bbc:	2a 15       	cp	r18, r10
    1bbe:	3b 05       	cpc	r19, r11
    1bc0:	09 f0       	breq	.+2      	; 0x1bc4 <LFSMread+0xc0>
    1bc2:	60 c0       	rjmp	.+192    	; 0x1c84 <LFSMread+0x180>
							i1 = r->sizeeeprom; // exit search
    1bc4:	f8 01       	movw	r30, r16
    1bc6:	c2 81       	ldd	r28, Z+2	; 0x02
    1bc8:	d3 81       	ldd	r29, Z+3	; 0x03
							status = 2; // Global logic exist
    1bca:	62 2c       	mov	r6, r2
    1bcc:	5b c0       	rjmp	.+182    	; 0x1c84 <LFSMread+0x180>
					}
				break;
				default: // Local logic
					if( (pdata->feedback & pdata->mask) == (r->output & pdata->mask) && pdata->inhl == HL && pdata->inlh == LH ){
    1bce:	ef e0       	ldi	r30, 0x0F	; 15
    1bd0:	f3 e0       	ldi	r31, 0x03	; 3
    1bd2:	41 81       	ldd	r20, Z+1	; 0x01
    1bd4:	52 81       	ldd	r21, Z+2	; 0x02
    1bd6:	d8 01       	movw	r26, r16
    1bd8:	17 96       	adiw	r26, 0x07	; 7
    1bda:	2d 91       	ld	r18, X+
    1bdc:	3c 91       	ld	r19, X
    1bde:	18 97       	sbiw	r26, 0x08	; 8
    1be0:	24 27       	eor	r18, r20
    1be2:	35 27       	eor	r19, r21
    1be4:	45 81       	ldd	r20, Z+5	; 0x05
    1be6:	56 81       	ldd	r21, Z+6	; 0x06
    1be8:	24 23       	and	r18, r20
    1bea:	35 23       	and	r19, r21
    1bec:	23 2b       	or	r18, r19
    1bee:	09 f0       	breq	.+2      	; 0x1bf2 <LFSMread+0xee>
    1bf0:	49 c0       	rjmp	.+146    	; 0x1c84 <LFSMread+0x180>
    1bf2:	20 91 12 03 	lds	r18, 0x0312	; 0x800312 <data+0x3>
    1bf6:	30 e0       	ldi	r19, 0x00	; 0
    1bf8:	2c 15       	cp	r18, r12
    1bfa:	3d 05       	cpc	r19, r13
    1bfc:	09 f0       	breq	.+2      	; 0x1c00 <LFSMread+0xfc>
    1bfe:	42 c0       	rjmp	.+132    	; 0x1c84 <LFSMread+0x180>
    1c00:	20 91 13 03 	lds	r18, 0x0313	; 0x800313 <data+0x4>
    1c04:	30 e0       	ldi	r19, 0x00	; 0
    1c06:	2a 15       	cp	r18, r10
    1c08:	3b 05       	cpc	r19, r11
    1c0a:	e1 f5       	brne	.+120    	; 0x1c84 <LFSMread+0x180>
						n = pdata->page - page;	
    1c0c:	28 2f       	mov	r18, r24
    1c0e:	30 e0       	ldi	r19, 0x00	; 0
    1c10:	28 19       	sub	r18, r8
    1c12:	39 09       	sbc	r19, r9
						if(!n){
    1c14:	49 f4       	brne	.+18     	; 0x1c28 <LFSMread+0x124>
							i1 = r->sizeeeprom; // exit search
    1c16:	12 96       	adiw	r26, 0x02	; 2
    1c18:	cd 91       	ld	r28, X+
    1c1a:	dc 91       	ld	r29, X
    1c1c:	13 97       	sbiw	r26, 0x03	; 3
							status = 3; // Local logic exist in present page
    1c1e:	0f 2e       	mov	r0, r31
    1c20:	f3 e0       	ldi	r31, 0x03	; 3
    1c22:	6f 2e       	mov	r6, r31
    1c24:	f0 2d       	mov	r31, r0
							break;
    1c26:	2e c0       	rjmp	.+92     	; 0x1c84 <LFSMread+0x180>
						}
						if(n > 0){
    1c28:	12 16       	cp	r1, r18
    1c2a:	13 06       	cpc	r1, r19
    1c2c:	9c f4       	brge	.+38     	; 0x1c54 <LFSMread+0x150>
							if(n < n1){
    1c2e:	44 2d       	mov	r20, r4
    1c30:	50 e0       	ldi	r21, 0x00	; 0
    1c32:	24 17       	cp	r18, r20
    1c34:	35 07       	cpc	r19, r21
    1c36:	74 f4       	brge	.+28     	; 0x1c54 <LFSMread+0x150>
								tmp1 = *pdata;
    1c38:	9b e0       	ldi	r25, 0x0B	; 11
    1c3a:	ef e0       	ldi	r30, 0x0F	; 15
    1c3c:	f3 e0       	ldi	r31, 0x03	; 3
    1c3e:	aa e1       	ldi	r26, 0x1A	; 26
    1c40:	b3 e0       	ldi	r27, 0x03	; 3
    1c42:	01 90       	ld	r0, Z+
    1c44:	0d 92       	st	X+, r0
    1c46:	9a 95       	dec	r25
    1c48:	e1 f7       	brne	.-8      	; 0x1c42 <LFSMread+0x13e>
    1c4a:	48 2e       	mov	r4, r24
    1c4c:	45 18       	sub	r4, r5
								n1 = n;
								status = 4; // Local logic exist in page above
    1c4e:	68 94       	set
    1c50:	66 24       	eor	r6, r6
    1c52:	62 f8       	bld	r6, 2
							}
						}
						if(n < 0){
    1c54:	33 23       	and	r19, r19
    1c56:	b4 f4       	brge	.+44     	; 0x1c84 <LFSMread+0x180>
							if(n > -n2){
    1c58:	43 2d       	mov	r20, r3
    1c5a:	50 e0       	ldi	r21, 0x00	; 0
    1c5c:	51 95       	neg	r21
    1c5e:	41 95       	neg	r20
    1c60:	51 09       	sbc	r21, r1
    1c62:	42 17       	cp	r20, r18
    1c64:	53 07       	cpc	r21, r19
    1c66:	74 f4       	brge	.+28     	; 0x1c84 <LFSMread+0x180>
								tmp2 = *pdata;
    1c68:	9b e0       	ldi	r25, 0x0B	; 11
    1c6a:	ef e0       	ldi	r30, 0x0F	; 15
    1c6c:	f3 e0       	ldi	r31, 0x03	; 3
    1c6e:	a4 e0       	ldi	r26, 0x04	; 4
    1c70:	b3 e0       	ldi	r27, 0x03	; 3
    1c72:	01 90       	ld	r0, Z+
    1c74:	0d 92       	st	X+, r0
    1c76:	9a 95       	dec	r25
    1c78:	e1 f7       	brne	.-8      	; 0x1c72 <LFSMread+0x16e>
								n2 = -n;
    1c7a:	35 2c       	mov	r3, r5
    1c7c:	38 1a       	sub	r3, r24
								status = 4; // Local logic exist in page bellow
    1c7e:	68 94       	set
    1c80:	66 24       	eor	r6, r6
    1c82:	62 f8       	bld	r6, 2
	uint16_t HL, LH;
	HL = LFSMhl(r->input, input);
	LH = LFSMlh(r->input, input);
	if(HL || LH){ // To not waste time
		status = 1; // New entry
		for(i1 = 0; i1 < r->sizeeeprom; i1++){
    1c84:	21 96       	adiw	r28, 0x01	; 1
    1c86:	f8 01       	movw	r30, r16
    1c88:	22 81       	ldd	r18, Z+2	; 0x02
    1c8a:	33 81       	ldd	r19, Z+3	; 0x03
    1c8c:	c2 17       	cp	r28, r18
    1c8e:	d3 07       	cpc	r29, r19
    1c90:	08 f4       	brcc	.+2      	; 0x1c94 <LFSMread+0x190>
    1c92:	72 cf       	rjmp	.-284    	; 0x1b78 <LFSMread+0x74>
				break;
			}
		}
	}
	// status confirmation
	switch (status){
    1c94:	f2 e0       	ldi	r31, 0x02	; 2
    1c96:	6f 16       	cp	r6, r31
    1c98:	89 f0       	breq	.+34     	; 0x1cbc <LFSMread+0x1b8>
    1c9a:	f6 15       	cp	r31, r6
    1c9c:	20 f0       	brcs	.+8      	; 0x1ca6 <LFSMread+0x1a2>
    1c9e:	81 e0       	ldi	r24, 0x01	; 1
    1ca0:	68 16       	cp	r6, r24
    1ca2:	49 f0       	breq	.+18     	; 0x1cb6 <LFSMread+0x1b2>
    1ca4:	a3 c0       	rjmp	.+326    	; 0x1dec <LFSMread+0x2e8>
    1ca6:	93 e0       	ldi	r25, 0x03	; 3
    1ca8:	69 16       	cp	r6, r25
    1caa:	69 f1       	breq	.+90     	; 0x1d06 <LFSMread+0x202>
    1cac:	a4 e0       	ldi	r26, 0x04	; 4
    1cae:	6a 16       	cp	r6, r26
    1cb0:	09 f4       	brne	.+2      	; 0x1cb4 <LFSMread+0x1b0>
    1cb2:	4b c0       	rjmp	.+150    	; 0x1d4a <LFSMread+0x246>
    1cb4:	9b c0       	rjmp	.+310    	; 0x1dec <LFSMread+0x2e8>
		break;
		case 1: // New entry
			// Give warning and pause waiting for decision (very important).
			// To be implemented Learning on flight mode.
			// Serves has flag to main function.
			r->input = input; // Update
    1cb6:	f8 01       	movw	r30, r16
    1cb8:	76 82       	std	Z+6, r7	; 0x06
		break;
    1cba:	98 c0       	rjmp	.+304    	; 0x1dec <LFSMread+0x2e8>
		case 2: // Global logic exist
			r->page = pdata->page;
    1cbc:	d8 01       	movw	r26, r16
    1cbe:	15 96       	adiw	r26, 0x05	; 5
    1cc0:	8c 93       	st	X, r24
    1cc2:	15 97       	sbiw	r26, 0x05	; 5
			r->input = input; // Update
    1cc4:	16 96       	adiw	r26, 0x06	; 6
    1cc6:	7c 92       	st	X, r7
    1cc8:	16 97       	sbiw	r26, 0x06	; 6
			r->output = LFSMoutputcalc(r->output, pdata->outhl, pdata->outlh, pdata->mask);
    1cca:	ef e0       	ldi	r30, 0x0F	; 15
    1ccc:	f3 e0       	ldi	r31, 0x03	; 3
    1cce:	65 81       	ldd	r22, Z+5	; 0x05
    1cd0:	76 81       	ldd	r23, Z+6	; 0x06
}
**************************************************************************/
// uint16_t LFSMoutputcalc(uint16_t feedback, uint16_t hl, uint16_t lh, uint16_t mask)
uint16_t LFSMoutputcalc(uint16_t feedback, uint16_t hl, uint16_t lh, uint16_t mask)
{
	feedback |= (lh & mask);
    1cd2:	21 85       	ldd	r18, Z+9	; 0x09
    1cd4:	32 85       	ldd	r19, Z+10	; 0x0a
    1cd6:	26 23       	and	r18, r22
    1cd8:	37 23       	and	r19, r23
    1cda:	17 96       	adiw	r26, 0x07	; 7
    1cdc:	4d 91       	ld	r20, X+
    1cde:	5c 91       	ld	r21, X
    1ce0:	18 97       	sbiw	r26, 0x08	; 8
    1ce2:	24 2b       	or	r18, r20
    1ce4:	35 2b       	or	r19, r21
			r->input = input; // Update
		break;
		case 2: // Global logic exist
			r->page = pdata->page;
			r->input = input; // Update
			r->output = LFSMoutputcalc(r->output, pdata->outhl, pdata->outlh, pdata->mask);
    1ce6:	87 81       	ldd	r24, Z+7	; 0x07
    1ce8:	90 85       	ldd	r25, Z+8	; 0x08
    1cea:	86 23       	and	r24, r22
    1cec:	97 23       	and	r25, r23
    1cee:	80 95       	com	r24
    1cf0:	90 95       	com	r25
    1cf2:	82 23       	and	r24, r18
    1cf4:	93 23       	and	r25, r19
    1cf6:	18 96       	adiw	r26, 0x08	; 8
    1cf8:	9c 93       	st	X, r25
    1cfa:	8e 93       	st	-X, r24
    1cfc:	17 97       	sbiw	r26, 0x07	; 7
			r->status = 2;
    1cfe:	82 e0       	ldi	r24, 0x02	; 2
    1d00:	19 96       	adiw	r26, 0x09	; 9
    1d02:	8c 93       	st	X, r24
		break;
    1d04:	73 c0       	rjmp	.+230    	; 0x1dec <LFSMread+0x2e8>
		case 3: // Local logic exist in present page
			r->page = pdata->page;
    1d06:	f8 01       	movw	r30, r16
    1d08:	85 83       	std	Z+5, r24	; 0x05
			r->input = input; // Update
    1d0a:	76 82       	std	Z+6, r7	; 0x06
			r->output = LFSMoutputcalc(r->output, pdata->outhl, pdata->outlh, pdata->mask);
    1d0c:	ef e0       	ldi	r30, 0x0F	; 15
    1d0e:	f3 e0       	ldi	r31, 0x03	; 3
    1d10:	65 81       	ldd	r22, Z+5	; 0x05
    1d12:	76 81       	ldd	r23, Z+6	; 0x06
}
**************************************************************************/
// uint16_t LFSMoutputcalc(uint16_t feedback, uint16_t hl, uint16_t lh, uint16_t mask)
uint16_t LFSMoutputcalc(uint16_t feedback, uint16_t hl, uint16_t lh, uint16_t mask)
{
	feedback |= (lh & mask);
    1d14:	21 85       	ldd	r18, Z+9	; 0x09
    1d16:	32 85       	ldd	r19, Z+10	; 0x0a
    1d18:	26 23       	and	r18, r22
    1d1a:	37 23       	and	r19, r23
    1d1c:	d8 01       	movw	r26, r16
    1d1e:	17 96       	adiw	r26, 0x07	; 7
    1d20:	4d 91       	ld	r20, X+
    1d22:	5c 91       	ld	r21, X
    1d24:	18 97       	sbiw	r26, 0x08	; 8
    1d26:	24 2b       	or	r18, r20
    1d28:	35 2b       	or	r19, r21
			r->status = 2;
		break;
		case 3: // Local logic exist in present page
			r->page = pdata->page;
			r->input = input; // Update
			r->output = LFSMoutputcalc(r->output, pdata->outhl, pdata->outlh, pdata->mask);
    1d2a:	87 81       	ldd	r24, Z+7	; 0x07
    1d2c:	90 85       	ldd	r25, Z+8	; 0x08
    1d2e:	86 23       	and	r24, r22
    1d30:	97 23       	and	r25, r23
    1d32:	80 95       	com	r24
    1d34:	90 95       	com	r25
    1d36:	82 23       	and	r24, r18
    1d38:	93 23       	and	r25, r19
    1d3a:	18 96       	adiw	r26, 0x08	; 8
    1d3c:	9c 93       	st	X, r25
    1d3e:	8e 93       	st	-X, r24
    1d40:	17 97       	sbiw	r26, 0x07	; 7
			r->status = 3;
    1d42:	83 e0       	ldi	r24, 0x03	; 3
    1d44:	19 96       	adiw	r26, 0x09	; 9
    1d46:	8c 93       	st	X, r24
		break;
    1d48:	51 c0       	rjmp	.+162    	; 0x1dec <LFSMread+0x2e8>
		case 4: // Local logic exist in page above versus local logic exist in page bellow
			// Choose closest page above otherwise closest bellow.
			r->input = input; // update
    1d4a:	f8 01       	movw	r30, r16
    1d4c:	76 82       	std	Z+6, r7	; 0x06
			if(n1 > 0 && n1 < NPAGES){
    1d4e:	8f ef       	ldi	r24, 0xFF	; 255
    1d50:	84 0d       	add	r24, r4
    1d52:	8e 3f       	cpi	r24, 0xFE	; 254
    1d54:	20 f5       	brcc	.+72     	; 0x1d9e <LFSMread+0x29a>
				r->page = tmp1.page;
    1d56:	ea e1       	ldi	r30, 0x1A	; 26
    1d58:	f3 e0       	ldi	r31, 0x03	; 3
    1d5a:	80 81       	ld	r24, Z
    1d5c:	d8 01       	movw	r26, r16
    1d5e:	15 96       	adiw	r26, 0x05	; 5
    1d60:	8c 93       	st	X, r24
    1d62:	15 97       	sbiw	r26, 0x05	; 5
				r->output = LFSMoutputcalc(r->output, tmp1.outhl, tmp1.outlh, tmp1.mask);
    1d64:	65 81       	ldd	r22, Z+5	; 0x05
    1d66:	76 81       	ldd	r23, Z+6	; 0x06
}
**************************************************************************/
// uint16_t LFSMoutputcalc(uint16_t feedback, uint16_t hl, uint16_t lh, uint16_t mask)
uint16_t LFSMoutputcalc(uint16_t feedback, uint16_t hl, uint16_t lh, uint16_t mask)
{
	feedback |= (lh & mask);
    1d68:	21 85       	ldd	r18, Z+9	; 0x09
    1d6a:	32 85       	ldd	r19, Z+10	; 0x0a
    1d6c:	ab 01       	movw	r20, r22
    1d6e:	42 23       	and	r20, r18
    1d70:	53 23       	and	r21, r19
    1d72:	17 96       	adiw	r26, 0x07	; 7
    1d74:	2d 91       	ld	r18, X+
    1d76:	3c 91       	ld	r19, X
    1d78:	18 97       	sbiw	r26, 0x08	; 8
    1d7a:	24 2b       	or	r18, r20
    1d7c:	35 2b       	or	r19, r21
		case 4: // Local logic exist in page above versus local logic exist in page bellow
			// Choose closest page above otherwise closest bellow.
			r->input = input; // update
			if(n1 > 0 && n1 < NPAGES){
				r->page = tmp1.page;
				r->output = LFSMoutputcalc(r->output, tmp1.outhl, tmp1.outlh, tmp1.mask);
    1d7e:	87 81       	ldd	r24, Z+7	; 0x07
    1d80:	90 85       	ldd	r25, Z+8	; 0x08
    1d82:	86 23       	and	r24, r22
    1d84:	97 23       	and	r25, r23
    1d86:	80 95       	com	r24
    1d88:	90 95       	com	r25
    1d8a:	82 23       	and	r24, r18
    1d8c:	93 23       	and	r25, r19
    1d8e:	18 96       	adiw	r26, 0x08	; 8
    1d90:	9c 93       	st	X, r25
    1d92:	8e 93       	st	-X, r24
    1d94:	17 97       	sbiw	r26, 0x07	; 7
				r->status = 41;
    1d96:	89 e2       	ldi	r24, 0x29	; 41
    1d98:	19 96       	adiw	r26, 0x09	; 9
    1d9a:	8c 93       	st	X, r24
    1d9c:	27 c0       	rjmp	.+78     	; 0x1dec <LFSMread+0x2e8>
			}
			else if(n2 > 0 && n2 < NPAGES){
    1d9e:	8f ef       	ldi	r24, 0xFF	; 255
    1da0:	83 0d       	add	r24, r3
    1da2:	8e 3f       	cpi	r24, 0xFE	; 254
    1da4:	18 f5       	brcc	.+70     	; 0x1dec <LFSMread+0x2e8>
				r->page = tmp2.page;
    1da6:	e4 e0       	ldi	r30, 0x04	; 4
    1da8:	f3 e0       	ldi	r31, 0x03	; 3
    1daa:	80 81       	ld	r24, Z
    1dac:	d8 01       	movw	r26, r16
    1dae:	15 96       	adiw	r26, 0x05	; 5
    1db0:	8c 93       	st	X, r24
    1db2:	15 97       	sbiw	r26, 0x05	; 5
				r->output = LFSMoutputcalc(r->output, tmp2.outhl, tmp2.outlh, tmp2.mask);
    1db4:	65 81       	ldd	r22, Z+5	; 0x05
    1db6:	76 81       	ldd	r23, Z+6	; 0x06
}
**************************************************************************/
// uint16_t LFSMoutputcalc(uint16_t feedback, uint16_t hl, uint16_t lh, uint16_t mask)
uint16_t LFSMoutputcalc(uint16_t feedback, uint16_t hl, uint16_t lh, uint16_t mask)
{
	feedback |= (lh & mask);
    1db8:	21 85       	ldd	r18, Z+9	; 0x09
    1dba:	32 85       	ldd	r19, Z+10	; 0x0a
    1dbc:	ab 01       	movw	r20, r22
    1dbe:	42 23       	and	r20, r18
    1dc0:	53 23       	and	r21, r19
    1dc2:	17 96       	adiw	r26, 0x07	; 7
    1dc4:	2d 91       	ld	r18, X+
    1dc6:	3c 91       	ld	r19, X
    1dc8:	18 97       	sbiw	r26, 0x08	; 8
    1dca:	24 2b       	or	r18, r20
    1dcc:	35 2b       	or	r19, r21
				r->output = LFSMoutputcalc(r->output, tmp1.outhl, tmp1.outlh, tmp1.mask);
				r->status = 41;
			}
			else if(n2 > 0 && n2 < NPAGES){
				r->page = tmp2.page;
				r->output = LFSMoutputcalc(r->output, tmp2.outhl, tmp2.outlh, tmp2.mask);
    1dce:	87 81       	ldd	r24, Z+7	; 0x07
    1dd0:	90 85       	ldd	r25, Z+8	; 0x08
    1dd2:	86 23       	and	r24, r22
    1dd4:	97 23       	and	r25, r23
    1dd6:	80 95       	com	r24
    1dd8:	90 95       	com	r25
    1dda:	82 23       	and	r24, r18
    1ddc:	93 23       	and	r25, r19
    1dde:	18 96       	adiw	r26, 0x08	; 8
    1de0:	9c 93       	st	X, r25
    1de2:	8e 93       	st	-X, r24
    1de4:	17 97       	sbiw	r26, 0x07	; 7
				r->status = 42;
    1de6:	8a e2       	ldi	r24, 0x2A	; 42
    1de8:	19 96       	adiw	r26, 0x09	; 9
    1dea:	8c 93       	st	X, r24
		break;
		default:
		break;
	}
	return r->status;
}
    1dec:	f8 01       	movw	r30, r16
    1dee:	81 85       	ldd	r24, Z+9	; 0x09
    1df0:	df 91       	pop	r29
    1df2:	cf 91       	pop	r28
    1df4:	1f 91       	pop	r17
    1df6:	0f 91       	pop	r16
    1df8:	ff 90       	pop	r15
    1dfa:	ef 90       	pop	r14
    1dfc:	df 90       	pop	r13
    1dfe:	cf 90       	pop	r12
    1e00:	bf 90       	pop	r11
    1e02:	af 90       	pop	r10
    1e04:	9f 90       	pop	r9
    1e06:	8f 90       	pop	r8
    1e08:	7f 90       	pop	r7
    1e0a:	6f 90       	pop	r6
    1e0c:	5f 90       	pop	r5
    1e0e:	4f 90       	pop	r4
    1e10:	3f 90       	pop	r3
    1e12:	2f 90       	pop	r2
    1e14:	08 95       	ret

00001e16 <LFSMpremove>:
	}
	return status;
}
// uint8_t LFSMpremove(struct lfsm *r, uint8_t input)
uint8_t LFSMpremove(struct lfsm *r, uint8_t input, uint8_t page)
{
    1e16:	2f 92       	push	r2
    1e18:	3f 92       	push	r3
    1e1a:	4f 92       	push	r4
    1e1c:	5f 92       	push	r5
    1e1e:	6f 92       	push	r6
    1e20:	7f 92       	push	r7
    1e22:	8f 92       	push	r8
    1e24:	9f 92       	push	r9
    1e26:	af 92       	push	r10
    1e28:	bf 92       	push	r11
    1e2a:	cf 92       	push	r12
    1e2c:	df 92       	push	r13
    1e2e:	ef 92       	push	r14
    1e30:	ff 92       	push	r15
    1e32:	0f 93       	push	r16
    1e34:	1f 93       	push	r17
    1e36:	cf 93       	push	r28
    1e38:	df 93       	push	r29
	uint16_t k, k1, k2, i1;
	k = k1 = k2 = 0;
	uint8_t status = 0;
	uint8_t sizeblock = r->sizeblock;
    1e3a:	dc 01       	movw	r26, r24
    1e3c:	14 96       	adiw	r26, 0x04	; 4
    1e3e:	0c 91       	ld	r16, X
    1e40:	14 97       	sbiw	r26, 0x04	; 4
	struct lfsmdata* pdata = &data;
	struct lfsmdata* ptmp1 = &tmp1;
	ptmp1->page = 0;
    1e42:	10 92 1a 03 	sts	0x031A, r1	; 0x80031a <tmp1>
	uint16_t HL,LH;
	HL = LFSMhl(r->input, input);
	LH = LFSMlh(r->input, input);
	if(page > 0){ // filter
    1e46:	44 23       	and	r20, r20
    1e48:	09 f4       	brne	.+2      	; 0x1e4c <LFSMpremove+0x36>
    1e4a:	87 c0       	rjmp	.+270    	; 0x1f5a <LFSMpremove+0x144>
	uint8_t sizeblock = r->sizeblock;
	struct lfsmdata* pdata = &data;
	struct lfsmdata* ptmp1 = &tmp1;
	ptmp1->page = 0;
	uint16_t HL,LH;
	HL = LFSMhl(r->input, input);
    1e4c:	16 96       	adiw	r26, 0x06	; 6
    1e4e:	ac 90       	ld	r10, X
    1e50:	26 2f       	mov	r18, r22
    1e52:	2a 25       	eor	r18, r10
// uint16_t LFSMhl(uint16_t xi, uint16_t xf)
uint16_t LFSMhl(uint16_t xi, uint16_t xf)
{
	uint16_t i;
	i = xf ^ xi;
	i &= xi;
    1e54:	a2 22       	and	r10, r18
    1e56:	b1 2c       	mov	r11, r1
// uint16_t LFSMlh(uint16_t xi, uint16_t xf)***/
uint16_t LFSMlh(uint16_t xi, uint16_t xf)
{
	uint16_t i;
	i = xf ^ xi;
	i &= xf;
    1e58:	26 23       	and	r18, r22
    1e5a:	82 2e       	mov	r8, r18
    1e5c:	91 2c       	mov	r9, r1
	ptmp1->page = 0;
	uint16_t HL,LH;
	HL = LFSMhl(r->input, input);
	LH = LFSMlh(r->input, input);
	if(page > 0){ // filter
		if(HL || LH){ // input
    1e5e:	a1 14       	cp	r10, r1
    1e60:	b1 04       	cpc	r11, r1
    1e62:	41 f0       	breq	.+16     	; 0x1e74 <LFSMpremove+0x5e>
			status = 1;
			for(i1 = 0; i1 < r->sizeeeprom; i1++){
    1e64:	fc 01       	movw	r30, r24
    1e66:	22 81       	ldd	r18, Z+2	; 0x02
    1e68:	33 81       	ldd	r19, Z+3	; 0x03
    1e6a:	23 2b       	or	r18, r19
    1e6c:	41 f4       	brne	.+16     	; 0x1e7e <LFSMpremove+0x68>
    1e6e:	44 24       	eor	r4, r4
    1e70:	43 94       	inc	r4
    1e72:	8d c0       	rjmp	.+282    	; 0x1f8e <LFSMpremove+0x178>
	ptmp1->page = 0;
	uint16_t HL,LH;
	HL = LFSMhl(r->input, input);
	LH = LFSMlh(r->input, input);
	if(page > 0){ // filter
		if(HL || LH){ // input
    1e74:	81 14       	cp	r8, r1
    1e76:	91 04       	cpc	r9, r1
    1e78:	a9 f7       	brne	.-22     	; 0x1e64 <LFSMpremove+0x4e>
// uint8_t LFSMpremove(struct lfsm *r, uint8_t input)
uint8_t LFSMpremove(struct lfsm *r, uint8_t input, uint8_t page)
{
	uint16_t k, k1, k2, i1;
	k = k1 = k2 = 0;
	uint8_t status = 0;
    1e7a:	41 2c       	mov	r4, r1
    1e7c:	88 c0       	rjmp	.+272    	; 0x1f8e <LFSMpremove+0x178>
    1e7e:	54 2e       	mov	r5, r20
    1e80:	7c 01       	movw	r14, r24
	HL = LFSMhl(r->input, input);
	LH = LFSMlh(r->input, input);
	if(page > 0){ // filter
		if(HL || LH){ // input
			status = 1;
			for(i1 = 0; i1 < r->sizeeeprom; i1++){
    1e82:	44 24       	eor	r4, r4
    1e84:	43 94       	inc	r4
    1e86:	c0 e0       	ldi	r28, 0x00	; 0
    1e88:	d0 e0       	ldi	r29, 0x00	; 0
    1e8a:	61 2c       	mov	r6, r1
    1e8c:	71 2c       	mov	r7, r1
				r->eprom->read_block(pdata, (const void*)(i1 * sizeblock), sizeblock);
    1e8e:	10 e0       	ldi	r17, 0x00	; 0
						i1 = r->sizeeeprom;
						status = 2; // Global logic exist
					}else if( (pdata->feedback & pdata->mask) == (r->output & pdata->mask) && pdata->inhl == HL && pdata->inlh == LH && pdata->page == page){
						k = i1;
						i1 = r->sizeeeprom;
						status = 3; // Local logic exist in present page
    1e90:	0f 2e       	mov	r0, r31
    1e92:	f3 e0       	ldi	r31, 0x03	; 3
    1e94:	3f 2e       	mov	r3, r31
    1e96:	f0 2d       	mov	r31, r0
				r->eprom->read_block(pdata, (const void*)(i1 * sizeblock), sizeblock);
				if(pdata->page == page){ // skip not desired
					if( pdata->inhl == HL && pdata->inlh == LH && page == 1){
						k = i1;
						i1 = r->sizeeeprom;
						status = 2; // Global logic exist
    1e98:	68 94       	set
    1e9a:	22 24       	eor	r2, r2
    1e9c:	21 f8       	bld	r2, 1
	LH = LFSMlh(r->input, input);
	if(page > 0){ // filter
		if(HL || LH){ // input
			status = 1;
			for(i1 = 0; i1 < r->sizeeeprom; i1++){
				r->eprom->read_block(pdata, (const void*)(i1 * sizeblock), sizeblock);
    1e9e:	68 01       	movw	r12, r16
    1ea0:	0c 9f       	mul	r16, r28
    1ea2:	b0 01       	movw	r22, r0
    1ea4:	0d 9f       	mul	r16, r29
    1ea6:	70 0d       	add	r23, r0
    1ea8:	1c 9f       	mul	r17, r28
    1eaa:	70 0d       	add	r23, r0
    1eac:	11 24       	eor	r1, r1
    1eae:	d7 01       	movw	r26, r14
    1eb0:	ed 91       	ld	r30, X+
    1eb2:	fc 91       	ld	r31, X
    1eb4:	00 8c       	ldd	r0, Z+24	; 0x18
    1eb6:	f1 8d       	ldd	r31, Z+25	; 0x19
    1eb8:	e0 2d       	mov	r30, r0
    1eba:	a8 01       	movw	r20, r16
    1ebc:	8f e0       	ldi	r24, 0x0F	; 15
    1ebe:	93 e0       	ldi	r25, 0x03	; 3
    1ec0:	09 95       	icall
				if(pdata->page == page){ // skip not desired
    1ec2:	80 91 0f 03 	lds	r24, 0x030F	; 0x80030f <data>
    1ec6:	58 12       	cpse	r5, r24
    1ec8:	14 c0       	rjmp	.+40     	; 0x1ef2 <LFSMpremove+0xdc>
					if( pdata->inhl == HL && pdata->inlh == LH && page == 1){
    1eca:	80 91 12 03 	lds	r24, 0x0312	; 0x800312 <data+0x3>
    1ece:	90 e0       	ldi	r25, 0x00	; 0
    1ed0:	8a 15       	cp	r24, r10
    1ed2:	9b 05       	cpc	r25, r11
    1ed4:	71 f4       	brne	.+28     	; 0x1ef2 <LFSMpremove+0xdc>
    1ed6:	80 91 13 03 	lds	r24, 0x0313	; 0x800313 <data+0x4>
    1eda:	90 e0       	ldi	r25, 0x00	; 0
    1edc:	88 15       	cp	r24, r8
    1ede:	99 05       	cpc	r25, r9
    1ee0:	41 f4       	brne	.+16     	; 0x1ef2 <LFSMpremove+0xdc>
    1ee2:	b1 e0       	ldi	r27, 0x01	; 1
    1ee4:	5b 12       	cpse	r5, r27
    1ee6:	41 c0       	rjmp	.+130    	; 0x1f6a <LFSMpremove+0x154>
						k = i1;
						i1 = r->sizeeeprom;
						status = 2; // Global logic exist
    1ee8:	3e 01       	movw	r6, r28
			for(i1 = 0; i1 < r->sizeeeprom; i1++){
				r->eprom->read_block(pdata, (const void*)(i1 * sizeblock), sizeblock);
				if(pdata->page == page){ // skip not desired
					if( pdata->inhl == HL && pdata->inlh == LH && page == 1){
						k = i1;
						i1 = r->sizeeeprom;
    1eea:	f7 01       	movw	r30, r14
    1eec:	c2 81       	ldd	r28, Z+2	; 0x02
    1eee:	d3 81       	ldd	r29, Z+3	; 0x03
						status = 2; // Global logic exist
    1ef0:	42 2c       	mov	r4, r2
	HL = LFSMhl(r->input, input);
	LH = LFSMlh(r->input, input);
	if(page > 0){ // filter
		if(HL || LH){ // input
			status = 1;
			for(i1 = 0; i1 < r->sizeeeprom; i1++){
    1ef2:	21 96       	adiw	r28, 0x01	; 1
    1ef4:	d7 01       	movw	r26, r14
    1ef6:	12 96       	adiw	r26, 0x02	; 2
    1ef8:	8d 91       	ld	r24, X+
    1efa:	9c 91       	ld	r25, X
    1efc:	13 97       	sbiw	r26, 0x03	; 3
    1efe:	c8 17       	cp	r28, r24
    1f00:	d9 07       	cpc	r29, r25
    1f02:	68 f2       	brcs	.-102    	; 0x1e9e <LFSMpremove+0x88>
				}
			}
		}
	}
	// status confirmation
	switch (status){
    1f04:	b2 e0       	ldi	r27, 0x02	; 2
    1f06:	4b 16       	cp	r4, r27
    1f08:	21 f0       	breq	.+8      	; 0x1f12 <LFSMpremove+0xfc>
    1f0a:	e3 e0       	ldi	r30, 0x03	; 3
    1f0c:	4e 16       	cp	r4, r30
    1f0e:	99 f0       	breq	.+38     	; 0x1f36 <LFSMpremove+0x120>
    1f10:	3e c0       	rjmp	.+124    	; 0x1f8e <LFSMpremove+0x178>
		case 0: // No entry
		break;
		case 1: // Unknown entry
		break;
		case 2: // Global logic exist in present page
		r->eprom->update_block(ptmp1, (void*)(k * sizeblock), sizeblock);
    1f12:	6c 9c       	mul	r6, r12
    1f14:	b0 01       	movw	r22, r0
    1f16:	6d 9c       	mul	r6, r13
    1f18:	70 0d       	add	r23, r0
    1f1a:	7c 9c       	mul	r7, r12
    1f1c:	70 0d       	add	r23, r0
    1f1e:	11 24       	eor	r1, r1
    1f20:	d7 01       	movw	r26, r14
    1f22:	ed 91       	ld	r30, X+
    1f24:	fc 91       	ld	r31, X
    1f26:	04 8c       	ldd	r0, Z+28	; 0x1c
    1f28:	f5 8d       	ldd	r31, Z+29	; 0x1d
    1f2a:	e0 2d       	mov	r30, r0
    1f2c:	a6 01       	movw	r20, r12
    1f2e:	8a e1       	ldi	r24, 0x1A	; 26
    1f30:	93 e0       	ldi	r25, 0x03	; 3
    1f32:	09 95       	icall
		break;
    1f34:	2c c0       	rjmp	.+88     	; 0x1f8e <LFSMpremove+0x178>
		case 3: // Local logic exist in present page
		r->eprom->update_block(ptmp1, (void*)(k * sizeblock), sizeblock);
    1f36:	6c 9c       	mul	r6, r12
    1f38:	b0 01       	movw	r22, r0
    1f3a:	6d 9c       	mul	r6, r13
    1f3c:	70 0d       	add	r23, r0
    1f3e:	7c 9c       	mul	r7, r12
    1f40:	70 0d       	add	r23, r0
    1f42:	11 24       	eor	r1, r1
    1f44:	d7 01       	movw	r26, r14
    1f46:	ed 91       	ld	r30, X+
    1f48:	fc 91       	ld	r31, X
    1f4a:	04 8c       	ldd	r0, Z+28	; 0x1c
    1f4c:	f5 8d       	ldd	r31, Z+29	; 0x1d
    1f4e:	e0 2d       	mov	r30, r0
    1f50:	a6 01       	movw	r20, r12
    1f52:	8a e1       	ldi	r24, 0x1A	; 26
    1f54:	93 e0       	ldi	r25, 0x03	; 3
    1f56:	09 95       	icall
		break;
    1f58:	1a c0       	rjmp	.+52     	; 0x1f8e <LFSMpremove+0x178>
// uint8_t LFSMpremove(struct lfsm *r, uint8_t input)
uint8_t LFSMpremove(struct lfsm *r, uint8_t input, uint8_t page)
{
	uint16_t k, k1, k2, i1;
	k = k1 = k2 = 0;
	uint8_t status = 0;
    1f5a:	41 2c       	mov	r4, r1
		r->eprom->update_block(ptmp1, (void*)(k * sizeblock), sizeblock);
		break;
		default:
		break;
	}
	return status;
    1f5c:	18 c0       	rjmp	.+48     	; 0x1f8e <LFSMpremove+0x178>
						k = i1;
						i1 = r->sizeeeprom;
						status = 2; // Global logic exist
					}else if( (pdata->feedback & pdata->mask) == (r->output & pdata->mask) && pdata->inhl == HL && pdata->inlh == LH && pdata->page == page){
						k = i1;
						i1 = r->sizeeeprom;
    1f5e:	3e 01       	movw	r6, r28
    1f60:	f7 01       	movw	r30, r14
    1f62:	c2 81       	ldd	r28, Z+2	; 0x02
    1f64:	d3 81       	ldd	r29, Z+3	; 0x03
						status = 3; // Local logic exist in present page
    1f66:	43 2c       	mov	r4, r3
    1f68:	c4 cf       	rjmp	.-120    	; 0x1ef2 <LFSMpremove+0xdc>
				if(pdata->page == page){ // skip not desired
					if( pdata->inhl == HL && pdata->inlh == LH && page == 1){
						k = i1;
						i1 = r->sizeeeprom;
						status = 2; // Global logic exist
					}else if( (pdata->feedback & pdata->mask) == (r->output & pdata->mask) && pdata->inhl == HL && pdata->inlh == LH && pdata->page == page){
    1f6a:	ef e0       	ldi	r30, 0x0F	; 15
    1f6c:	f3 e0       	ldi	r31, 0x03	; 3
    1f6e:	21 81       	ldd	r18, Z+1	; 0x01
    1f70:	32 81       	ldd	r19, Z+2	; 0x02
    1f72:	d7 01       	movw	r26, r14
    1f74:	17 96       	adiw	r26, 0x07	; 7
    1f76:	8d 91       	ld	r24, X+
    1f78:	9c 91       	ld	r25, X
    1f7a:	18 97       	sbiw	r26, 0x08	; 8
    1f7c:	28 27       	eor	r18, r24
    1f7e:	39 27       	eor	r19, r25
    1f80:	85 81       	ldd	r24, Z+5	; 0x05
    1f82:	96 81       	ldd	r25, Z+6	; 0x06
    1f84:	82 23       	and	r24, r18
    1f86:	93 23       	and	r25, r19
    1f88:	89 2b       	or	r24, r25
    1f8a:	49 f3       	breq	.-46     	; 0x1f5e <LFSMpremove+0x148>
    1f8c:	b2 cf       	rjmp	.-156    	; 0x1ef2 <LFSMpremove+0xdc>
		break;
		default:
		break;
	}
	return status;
}
    1f8e:	84 2d       	mov	r24, r4
    1f90:	df 91       	pop	r29
    1f92:	cf 91       	pop	r28
    1f94:	1f 91       	pop	r17
    1f96:	0f 91       	pop	r16
    1f98:	ff 90       	pop	r15
    1f9a:	ef 90       	pop	r14
    1f9c:	df 90       	pop	r13
    1f9e:	cf 90       	pop	r12
    1fa0:	bf 90       	pop	r11
    1fa2:	af 90       	pop	r10
    1fa4:	9f 90       	pop	r9
    1fa6:	8f 90       	pop	r8
    1fa8:	7f 90       	pop	r7
    1faa:	6f 90       	pop	r6
    1fac:	5f 90       	pop	r5
    1fae:	4f 90       	pop	r4
    1fb0:	3f 90       	pop	r3
    1fb2:	2f 90       	pop	r2
    1fb4:	08 95       	ret

00001fb6 <LFSMremove>:
	}
	return programmed;
}
// uint8_t LFSMremove(struct lfsm *r, uint8_t input)
uint8_t LFSMremove(struct lfsm *r, uint8_t input)
{
    1fb6:	2f 92       	push	r2
    1fb8:	3f 92       	push	r3
    1fba:	4f 92       	push	r4
    1fbc:	5f 92       	push	r5
    1fbe:	6f 92       	push	r6
    1fc0:	7f 92       	push	r7
    1fc2:	8f 92       	push	r8
    1fc4:	9f 92       	push	r9
    1fc6:	af 92       	push	r10
    1fc8:	bf 92       	push	r11
    1fca:	cf 92       	push	r12
    1fcc:	df 92       	push	r13
    1fce:	ef 92       	push	r14
    1fd0:	ff 92       	push	r15
    1fd2:	0f 93       	push	r16
    1fd4:	1f 93       	push	r17
    1fd6:	cf 93       	push	r28
    1fd8:	df 93       	push	r29
    1fda:	cd b7       	in	r28, 0x3d	; 61
    1fdc:	de b7       	in	r29, 0x3e	; 62
    1fde:	29 97       	sbiw	r28, 0x09	; 9
    1fe0:	0f b6       	in	r0, 0x3f	; 63
    1fe2:	f8 94       	cli
    1fe4:	de bf       	out	0x3e, r29	; 62
    1fe6:	0f be       	out	0x3f, r0	; 63
    1fe8:	cd bf       	out	0x3d, r28	; 61
    1fea:	fc 01       	movw	r30, r24
	uint16_t k, k1, k2, i1;
	k = k1 = k2 = 0;
	uint8_t status = 0;
	uint8_t sizeblock = r->sizeblock;
    1fec:	84 81       	ldd	r24, Z+4	; 0x04
    1fee:	8f 83       	std	Y+7, r24	; 0x07
	struct lfsmdata* pdata = &data;
	struct lfsmdata* ptmp1 = &tmp1;
	ptmp1->page = 0;
    1ff0:	10 92 1a 03 	sts	0x031A, r1	; 0x80031a <tmp1>
	int16_t n = 0;
	uint8_t n1 = NPAGES, n2 = NPAGES;
	uint8_t page = r->page;
	uint16_t HL, LH;
	HL = LFSMhl(r->input, input);
    1ff4:	e6 80       	ldd	r14, Z+6	; 0x06
    1ff6:	96 2f       	mov	r25, r22
    1ff8:	9e 25       	eor	r25, r14
// uint16_t LFSMhl(uint16_t xi, uint16_t xf)
uint16_t LFSMhl(uint16_t xi, uint16_t xf)
{
	uint16_t i;
	i = xf ^ xi;
	i &= xi;
    1ffa:	e9 22       	and	r14, r25
    1ffc:	f1 2c       	mov	r15, r1
// uint16_t LFSMlh(uint16_t xi, uint16_t xf)***/
uint16_t LFSMlh(uint16_t xi, uint16_t xf)
{
	uint16_t i;
	i = xf ^ xi;
	i &= xf;
    1ffe:	96 23       	and	r25, r22
    2000:	a9 2e       	mov	r10, r25
    2002:	b1 2c       	mov	r11, r1
	uint8_t n1 = NPAGES, n2 = NPAGES;
	uint8_t page = r->page;
	uint16_t HL, LH;
	HL = LFSMhl(r->input, input);
	LH = LFSMlh(r->input, input);
	if(HL || LH){ // To not waste time
    2004:	e1 14       	cp	r14, r1
    2006:	f1 04       	cpc	r15, r1
    2008:	39 f0       	breq	.+14     	; 0x2018 <LFSMremove+0x62>
		status = 1; // New entry
		for(i1 = 0; i1 < r->sizeeeprom; i1++){
    200a:	82 81       	ldd	r24, Z+2	; 0x02
    200c:	93 81       	ldd	r25, Z+3	; 0x03
    200e:	89 2b       	or	r24, r25
    2010:	41 f4       	brne	.+16     	; 0x2022 <LFSMremove+0x6c>
    2012:	91 e0       	ldi	r25, 0x01	; 1
    2014:	99 83       	std	Y+1, r25	; 0x01
    2016:	fe c0       	rjmp	.+508    	; 0x2214 <LFSMremove+0x25e>
	uint8_t n1 = NPAGES, n2 = NPAGES;
	uint8_t page = r->page;
	uint16_t HL, LH;
	HL = LFSMhl(r->input, input);
	LH = LFSMlh(r->input, input);
	if(HL || LH){ // To not waste time
    2018:	a1 14       	cp	r10, r1
    201a:	b1 04       	cpc	r11, r1
    201c:	b1 f7       	brne	.-20     	; 0x200a <LFSMremove+0x54>
// uint8_t LFSMremove(struct lfsm *r, uint8_t input)
uint8_t LFSMremove(struct lfsm *r, uint8_t input)
{
	uint16_t k, k1, k2, i1;
	k = k1 = k2 = 0;
	uint8_t status = 0;
    201e:	19 82       	std	Y+1, r1	; 0x01
    2020:	f9 c0       	rjmp	.+498    	; 0x2214 <LFSMremove+0x25e>
    2022:	8f 01       	movw	r16, r30
	struct lfsmdata* pdata = &data;
	struct lfsmdata* ptmp1 = &tmp1;
	ptmp1->page = 0;
	int16_t n = 0;
	uint8_t n1 = NPAGES, n2 = NPAGES;
	uint8_t page = r->page;
    2024:	55 80       	ldd	r5, Z+5	; 0x05
    2026:	44 24       	eor	r4, r4
    2028:	4a 94       	dec	r4
    202a:	af ef       	ldi	r26, 0xFF	; 255
    202c:	aa 83       	std	Y+2, r26	; 0x02
    202e:	b1 e0       	ldi	r27, 0x01	; 1
    2030:	b9 83       	std	Y+1, r27	; 0x01
    2032:	81 2c       	mov	r8, r1
    2034:	91 2c       	mov	r9, r1
    2036:	1e 82       	std	Y+6, r1	; 0x06
    2038:	1d 82       	std	Y+5, r1	; 0x05
    203a:	1c 82       	std	Y+4, r1	; 0x04
    203c:	1b 82       	std	Y+3, r1	; 0x03
    203e:	21 2c       	mov	r2, r1
    2040:	31 2c       	mov	r3, r1
	HL = LFSMhl(r->input, input);
	LH = LFSMlh(r->input, input);
	if(HL || LH){ // To not waste time
		status = 1; // New entry
		for(i1 = 0; i1 < r->sizeeeprom; i1++){
			r->eprom->read_block(pdata, (const void*)(i1 * sizeblock), sizeblock);
    2042:	ff 81       	ldd	r31, Y+7	; 0x07
    2044:	ef 2f       	mov	r30, r31
    2046:	f0 e0       	ldi	r31, 0x00	; 0
						status = 2; // Global logic exist
					}
				break;
				default: // Local logic
					if( (pdata->feedback & pdata->mask) == (r->output & pdata->mask) && pdata->inhl == HL && pdata->inlh == LH ){
						n = pdata->page - page;
    2048:	65 2c       	mov	r6, r5
    204a:	71 2c       	mov	r7, r1
				break;
				case 1: // Global logic
					if( pdata->inhl == HL && pdata->inlh == LH ){
						k = i1;
						i1 = r->sizeeeprom;
						status = 2; // Global logic exist
    204c:	f9 87       	std	Y+9, r31	; 0x09
    204e:	e8 87       	std	Y+8, r30	; 0x08
	HL = LFSMhl(r->input, input);
	LH = LFSMlh(r->input, input);
	if(HL || LH){ // To not waste time
		status = 1; // New entry
		for(i1 = 0; i1 < r->sizeeeprom; i1++){
			r->eprom->read_block(pdata, (const void*)(i1 * sizeblock), sizeblock);
    2050:	c8 84       	ldd	r12, Y+8	; 0x08
    2052:	d9 84       	ldd	r13, Y+9	; 0x09
    2054:	c8 9c       	mul	r12, r8
    2056:	b0 01       	movw	r22, r0
    2058:	c9 9c       	mul	r12, r9
    205a:	70 0d       	add	r23, r0
    205c:	d8 9c       	mul	r13, r8
    205e:	70 0d       	add	r23, r0
    2060:	11 24       	eor	r1, r1
    2062:	d8 01       	movw	r26, r16
    2064:	ed 91       	ld	r30, X+
    2066:	fc 91       	ld	r31, X
    2068:	00 8c       	ldd	r0, Z+24	; 0x18
    206a:	f1 8d       	ldd	r31, Z+25	; 0x19
    206c:	e0 2d       	mov	r30, r0
    206e:	a6 01       	movw	r20, r12
    2070:	8f e0       	ldi	r24, 0x0F	; 15
    2072:	93 e0       	ldi	r25, 0x03	; 3
    2074:	09 95       	icall
			switch(pdata->page){
    2076:	80 91 0f 03 	lds	r24, 0x030F	; 0x80030f <data>
    207a:	88 23       	and	r24, r24
    207c:	09 f4       	brne	.+2      	; 0x2080 <LFSMremove+0xca>
    207e:	61 c0       	rjmp	.+194    	; 0x2142 <LFSMremove+0x18c>
    2080:	81 30       	cpi	r24, 0x01	; 1
    2082:	a9 f4       	brne	.+42     	; 0x20ae <LFSMremove+0xf8>
				case 0:
					// Do nothing, continue search in status=1.
				break;
				case 1: // Global logic
					if( pdata->inhl == HL && pdata->inlh == LH ){
    2084:	80 91 12 03 	lds	r24, 0x0312	; 0x800312 <data+0x3>
    2088:	90 e0       	ldi	r25, 0x00	; 0
    208a:	8e 15       	cp	r24, r14
    208c:	9f 05       	cpc	r25, r15
    208e:	09 f0       	breq	.+2      	; 0x2092 <LFSMremove+0xdc>
    2090:	58 c0       	rjmp	.+176    	; 0x2142 <LFSMremove+0x18c>
    2092:	80 91 13 03 	lds	r24, 0x0313	; 0x800313 <data+0x4>
    2096:	90 e0       	ldi	r25, 0x00	; 0
    2098:	8a 15       	cp	r24, r10
    209a:	9b 05       	cpc	r25, r11
    209c:	09 f0       	breq	.+2      	; 0x20a0 <LFSMremove+0xea>
    209e:	51 c0       	rjmp	.+162    	; 0x2142 <LFSMremove+0x18c>
						k = i1;
						i1 = r->sizeeeprom;
    20a0:	14 01       	movw	r2, r8
    20a2:	f8 01       	movw	r30, r16
    20a4:	82 80       	ldd	r8, Z+2	; 0x02
    20a6:	93 80       	ldd	r9, Z+3	; 0x03
						status = 2; // Global logic exist
    20a8:	f2 e0       	ldi	r31, 0x02	; 2
    20aa:	f9 83       	std	Y+1, r31	; 0x01
    20ac:	4a c0       	rjmp	.+148    	; 0x2142 <LFSMremove+0x18c>
					}
				break;
				default: // Local logic
					if( (pdata->feedback & pdata->mask) == (r->output & pdata->mask) && pdata->inhl == HL && pdata->inlh == LH ){
    20ae:	ef e0       	ldi	r30, 0x0F	; 15
    20b0:	f3 e0       	ldi	r31, 0x03	; 3
    20b2:	41 81       	ldd	r20, Z+1	; 0x01
    20b4:	52 81       	ldd	r21, Z+2	; 0x02
    20b6:	d8 01       	movw	r26, r16
    20b8:	17 96       	adiw	r26, 0x07	; 7
    20ba:	2d 91       	ld	r18, X+
    20bc:	3c 91       	ld	r19, X
    20be:	18 97       	sbiw	r26, 0x08	; 8
    20c0:	24 27       	eor	r18, r20
    20c2:	35 27       	eor	r19, r21
    20c4:	45 81       	ldd	r20, Z+5	; 0x05
    20c6:	56 81       	ldd	r21, Z+6	; 0x06
    20c8:	24 23       	and	r18, r20
    20ca:	35 23       	and	r19, r21
    20cc:	23 2b       	or	r18, r19
    20ce:	c9 f5       	brne	.+114    	; 0x2142 <LFSMremove+0x18c>
    20d0:	20 91 12 03 	lds	r18, 0x0312	; 0x800312 <data+0x3>
    20d4:	30 e0       	ldi	r19, 0x00	; 0
    20d6:	2e 15       	cp	r18, r14
    20d8:	3f 05       	cpc	r19, r15
    20da:	99 f5       	brne	.+102    	; 0x2142 <LFSMremove+0x18c>
    20dc:	20 91 13 03 	lds	r18, 0x0313	; 0x800313 <data+0x4>
    20e0:	30 e0       	ldi	r19, 0x00	; 0
    20e2:	2a 15       	cp	r18, r10
    20e4:	3b 05       	cpc	r19, r11
    20e6:	69 f5       	brne	.+90     	; 0x2142 <LFSMremove+0x18c>
						n = pdata->page - page;
    20e8:	28 2f       	mov	r18, r24
    20ea:	30 e0       	ldi	r19, 0x00	; 0
    20ec:	26 19       	sub	r18, r6
    20ee:	37 09       	sbc	r19, r7
						if(!n){
    20f0:	41 f4       	brne	.+16     	; 0x2102 <LFSMremove+0x14c>
							k = i1;
							i1 = r->sizeeeprom;
							status = 3; // Local logic exist in present page
							break;
    20f2:	14 01       	movw	r2, r8
				default: // Local logic
					if( (pdata->feedback & pdata->mask) == (r->output & pdata->mask) && pdata->inhl == HL && pdata->inlh == LH ){
						n = pdata->page - page;
						if(!n){
							k = i1;
							i1 = r->sizeeeprom;
    20f4:	12 96       	adiw	r26, 0x02	; 2
    20f6:	8d 90       	ld	r8, X+
    20f8:	9c 90       	ld	r9, X
    20fa:	13 97       	sbiw	r26, 0x03	; 3
							status = 3; // Local logic exist in present page
    20fc:	b3 e0       	ldi	r27, 0x03	; 3
    20fe:	b9 83       	std	Y+1, r27	; 0x01
							break;
    2100:	20 c0       	rjmp	.+64     	; 0x2142 <LFSMremove+0x18c>
						}
						if(n > 0){
    2102:	12 16       	cp	r1, r18
    2104:	13 06       	cpc	r1, r19
    2106:	6c f4       	brge	.+26     	; 0x2122 <LFSMremove+0x16c>
							if(n < n1){
    2108:	ea 81       	ldd	r30, Y+2	; 0x02
    210a:	4e 2f       	mov	r20, r30
    210c:	50 e0       	ldi	r21, 0x00	; 0
    210e:	24 17       	cp	r18, r20
    2110:	35 07       	cpc	r19, r21
    2112:	3c f4       	brge	.+14     	; 0x2122 <LFSMremove+0x16c>
    2114:	f8 2f       	mov	r31, r24
    2116:	f5 19       	sub	r31, r5
    2118:	fa 83       	std	Y+2, r31	; 0x02
    211a:	9c 82       	std	Y+4, r9	; 0x04
    211c:	8b 82       	std	Y+3, r8	; 0x03
								k1 = i1;
								n1 = n;
								status = 4; // Local logic exist in page above
    211e:	94 e0       	ldi	r25, 0x04	; 4
    2120:	99 83       	std	Y+1, r25	; 0x01
							}
						}
						if(n < 0){
    2122:	33 23       	and	r19, r19
    2124:	74 f4       	brge	.+28     	; 0x2142 <LFSMremove+0x18c>
							if(n > -n2){
    2126:	44 2d       	mov	r20, r4
    2128:	50 e0       	ldi	r21, 0x00	; 0
    212a:	51 95       	neg	r21
    212c:	41 95       	neg	r20
    212e:	51 09       	sbc	r21, r1
    2130:	42 17       	cp	r20, r18
    2132:	53 07       	cpc	r21, r19
    2134:	34 f4       	brge	.+12     	; 0x2142 <LFSMremove+0x18c>
								k2 = i1;
								n2 = -n;
    2136:	45 2c       	mov	r4, r5
    2138:	48 1a       	sub	r4, r24
    213a:	9e 82       	std	Y+6, r9	; 0x06
    213c:	8d 82       	std	Y+5, r8	; 0x05
								status = 4; // Local logic exist in page bellow
    213e:	a4 e0       	ldi	r26, 0x04	; 4
    2140:	a9 83       	std	Y+1, r26	; 0x01
	uint16_t HL, LH;
	HL = LFSMhl(r->input, input);
	LH = LFSMlh(r->input, input);
	if(HL || LH){ // To not waste time
		status = 1; // New entry
		for(i1 = 0; i1 < r->sizeeeprom; i1++){
    2142:	bf ef       	ldi	r27, 0xFF	; 255
    2144:	8b 1a       	sub	r8, r27
    2146:	9b 0a       	sbc	r9, r27
    2148:	f8 01       	movw	r30, r16
    214a:	82 81       	ldd	r24, Z+2	; 0x02
    214c:	93 81       	ldd	r25, Z+3	; 0x03
    214e:	88 16       	cp	r8, r24
    2150:	99 06       	cpc	r9, r25
    2152:	08 f4       	brcc	.+2      	; 0x2156 <LFSMremove+0x1a0>
    2154:	7d cf       	rjmp	.-262    	; 0x2050 <LFSMremove+0x9a>
				break;
			}
		}
	}
	// status confirmation
	switch (status){
    2156:	f9 81       	ldd	r31, Y+1	; 0x01
    2158:	f3 30       	cpi	r31, 0x03	; 3
    215a:	b9 f0       	breq	.+46     	; 0x218a <LFSMremove+0x1d4>
    215c:	f4 30       	cpi	r31, 0x04	; 4
    215e:	39 f1       	breq	.+78     	; 0x21ae <LFSMremove+0x1f8>
    2160:	f2 30       	cpi	r31, 0x02	; 2
    2162:	09 f0       	breq	.+2      	; 0x2166 <LFSMremove+0x1b0>
    2164:	57 c0       	rjmp	.+174    	; 0x2214 <LFSMremove+0x25e>
		case 0: // No entry
		break;
		case 1: // Unknown entry
		break;
		case 2: // Global logic exist
			r->eprom->update_block(ptmp1, (void*)(k * sizeblock), sizeblock);
    2166:	2c 9c       	mul	r2, r12
    2168:	b0 01       	movw	r22, r0
    216a:	2d 9c       	mul	r2, r13
    216c:	70 0d       	add	r23, r0
    216e:	3c 9c       	mul	r3, r12
    2170:	70 0d       	add	r23, r0
    2172:	11 24       	eor	r1, r1
    2174:	d8 01       	movw	r26, r16
    2176:	ed 91       	ld	r30, X+
    2178:	fc 91       	ld	r31, X
    217a:	04 8c       	ldd	r0, Z+28	; 0x1c
    217c:	f5 8d       	ldd	r31, Z+29	; 0x1d
    217e:	e0 2d       	mov	r30, r0
    2180:	a6 01       	movw	r20, r12
    2182:	8a e1       	ldi	r24, 0x1A	; 26
    2184:	93 e0       	ldi	r25, 0x03	; 3
    2186:	09 95       	icall
		break;
    2188:	45 c0       	rjmp	.+138    	; 0x2214 <LFSMremove+0x25e>
		case 3: // Local logic exist in present page
			r->eprom->update_block(ptmp1, (void*)(k * sizeblock), sizeblock);
    218a:	2c 9c       	mul	r2, r12
    218c:	b0 01       	movw	r22, r0
    218e:	2d 9c       	mul	r2, r13
    2190:	70 0d       	add	r23, r0
    2192:	3c 9c       	mul	r3, r12
    2194:	70 0d       	add	r23, r0
    2196:	11 24       	eor	r1, r1
    2198:	d8 01       	movw	r26, r16
    219a:	ed 91       	ld	r30, X+
    219c:	fc 91       	ld	r31, X
    219e:	04 8c       	ldd	r0, Z+28	; 0x1c
    21a0:	f5 8d       	ldd	r31, Z+29	; 0x1d
    21a2:	e0 2d       	mov	r30, r0
    21a4:	a6 01       	movw	r20, r12
    21a6:	8a e1       	ldi	r24, 0x1A	; 26
    21a8:	93 e0       	ldi	r25, 0x03	; 3
    21aa:	09 95       	icall
		break;
    21ac:	33 c0       	rjmp	.+102    	; 0x2214 <LFSMremove+0x25e>
		case 4: // Local logic exist in page above versus local logic exist in page bellow
			// choose closest page above otherwise closest bellow.
			if(n1 > 0 && n1 < NPAGES){
    21ae:	8a 81       	ldd	r24, Y+2	; 0x02
    21b0:	81 50       	subi	r24, 0x01	; 1
    21b2:	8e 3f       	cpi	r24, 0xFE	; 254
    21b4:	b0 f4       	brcc	.+44     	; 0x21e2 <LFSMremove+0x22c>
				r->eprom->update_block(ptmp1, (void*)(k1 * sizeblock), sizeblock);
    21b6:	eb 81       	ldd	r30, Y+3	; 0x03
    21b8:	fc 81       	ldd	r31, Y+4	; 0x04
    21ba:	ec 9d       	mul	r30, r12
    21bc:	b0 01       	movw	r22, r0
    21be:	ed 9d       	mul	r30, r13
    21c0:	70 0d       	add	r23, r0
    21c2:	fc 9d       	mul	r31, r12
    21c4:	70 0d       	add	r23, r0
    21c6:	11 24       	eor	r1, r1
    21c8:	d8 01       	movw	r26, r16
    21ca:	ed 91       	ld	r30, X+
    21cc:	fc 91       	ld	r31, X
    21ce:	04 8c       	ldd	r0, Z+28	; 0x1c
    21d0:	f5 8d       	ldd	r31, Z+29	; 0x1d
    21d2:	e0 2d       	mov	r30, r0
    21d4:	a6 01       	movw	r20, r12
    21d6:	8a e1       	ldi	r24, 0x1A	; 26
    21d8:	93 e0       	ldi	r25, 0x03	; 3
    21da:	09 95       	icall
				status = 41;
    21dc:	b9 e2       	ldi	r27, 0x29	; 41
    21de:	b9 83       	std	Y+1, r27	; 0x01
    21e0:	19 c0       	rjmp	.+50     	; 0x2214 <LFSMremove+0x25e>
			}
			else if(n2 > 0 && n2 < NPAGES){
    21e2:	8f ef       	ldi	r24, 0xFF	; 255
    21e4:	84 0d       	add	r24, r4
    21e6:	8e 3f       	cpi	r24, 0xFE	; 254
    21e8:	a8 f4       	brcc	.+42     	; 0x2214 <LFSMremove+0x25e>
				r->eprom->update_block(ptmp1, (void*)(k2 * sizeblock), sizeblock);
    21ea:	ed 81       	ldd	r30, Y+5	; 0x05
    21ec:	fe 81       	ldd	r31, Y+6	; 0x06
    21ee:	ec 9d       	mul	r30, r12
    21f0:	b0 01       	movw	r22, r0
    21f2:	ed 9d       	mul	r30, r13
    21f4:	70 0d       	add	r23, r0
    21f6:	fc 9d       	mul	r31, r12
    21f8:	70 0d       	add	r23, r0
    21fa:	11 24       	eor	r1, r1
    21fc:	d8 01       	movw	r26, r16
    21fe:	ed 91       	ld	r30, X+
    2200:	fc 91       	ld	r31, X
    2202:	04 8c       	ldd	r0, Z+28	; 0x1c
    2204:	f5 8d       	ldd	r31, Z+29	; 0x1d
    2206:	e0 2d       	mov	r30, r0
    2208:	a6 01       	movw	r20, r12
    220a:	8a e1       	ldi	r24, 0x1A	; 26
    220c:	93 e0       	ldi	r25, 0x03	; 3
    220e:	09 95       	icall
				status = 42;
    2210:	ba e2       	ldi	r27, 0x2A	; 42
    2212:	b9 83       	std	Y+1, r27	; 0x01
		break;
		default:
		break;
	}
	return status;
}
    2214:	89 81       	ldd	r24, Y+1	; 0x01
    2216:	29 96       	adiw	r28, 0x09	; 9
    2218:	0f b6       	in	r0, 0x3f	; 63
    221a:	f8 94       	cli
    221c:	de bf       	out	0x3e, r29	; 62
    221e:	0f be       	out	0x3f, r0	; 63
    2220:	cd bf       	out	0x3d, r28	; 61
    2222:	df 91       	pop	r29
    2224:	cf 91       	pop	r28
    2226:	1f 91       	pop	r17
    2228:	0f 91       	pop	r16
    222a:	ff 90       	pop	r15
    222c:	ef 90       	pop	r14
    222e:	df 90       	pop	r13
    2230:	cf 90       	pop	r12
    2232:	bf 90       	pop	r11
    2234:	af 90       	pop	r10
    2236:	9f 90       	pop	r9
    2238:	8f 90       	pop	r8
    223a:	7f 90       	pop	r7
    223c:	6f 90       	pop	r6
    223e:	5f 90       	pop	r5
    2240:	4f 90       	pop	r4
    2242:	3f 90       	pop	r3
    2244:	2f 90       	pop	r2
    2246:	08 95       	ret

00002248 <LFSMlearn>:
	}
	return r->status;
}
// uint8_t LFSMlearn(struct lfsm *r, const uint8_t input, const uint16_t next, const uint16_t mask, const uint8_t page)
uint8_t LFSMlearn(struct lfsm *r, const uint8_t input, const uint16_t next, const uint16_t mask, const uint8_t page)
{
    2248:	2f 92       	push	r2
    224a:	3f 92       	push	r3
    224c:	4f 92       	push	r4
    224e:	5f 92       	push	r5
    2250:	6f 92       	push	r6
    2252:	7f 92       	push	r7
    2254:	8f 92       	push	r8
    2256:	9f 92       	push	r9
    2258:	af 92       	push	r10
    225a:	bf 92       	push	r11
    225c:	cf 92       	push	r12
    225e:	df 92       	push	r13
    2260:	ef 92       	push	r14
    2262:	ff 92       	push	r15
    2264:	0f 93       	push	r16
    2266:	1f 93       	push	r17
    2268:	cf 93       	push	r28
    226a:	df 93       	push	r29
    226c:	00 d0       	rcall	.+0      	; 0x226e <LFSMlearn+0x26>
    226e:	1f 92       	push	r1
    2270:	cd b7       	in	r28, 0x3d	; 61
    2272:	de b7       	in	r29, 0x3e	; 62
    2274:	49 01       	movw	r8, r18
	struct lfsmdata* pdata = &data;
	struct lfsmdata* ptmp1 = &tmp1;
	uint16_t HL, LH;
	HL = LFSMhl(r->input, input);
	LH = LFSMlh(r->input, input);
	if(page > 0){ // Enable
    2276:	00 23       	and	r16, r16
    2278:	09 f4       	brne	.+2      	; 0x227c <LFSMlearn+0x34>
    227a:	c2 c0       	rjmp	.+388    	; 0x2400 <LFSMlearn+0x1b8>
	uint8_t status = 0;
	uint8_t sizeblock = r->sizeblock;
	struct lfsmdata* pdata = &data;
	struct lfsmdata* ptmp1 = &tmp1;
	uint16_t HL, LH;
	HL = LFSMhl(r->input, input);
    227c:	dc 01       	movw	r26, r24
    227e:	16 96       	adiw	r26, 0x06	; 6
    2280:	1c 91       	ld	r17, X
    2282:	36 2f       	mov	r19, r22
    2284:	31 27       	eor	r19, r17
    2286:	13 23       	and	r17, r19
// uint16_t LFSMhl(uint16_t xi, uint16_t xf)
uint16_t LFSMhl(uint16_t xi, uint16_t xf)
{
	uint16_t i;
	i = xf ^ xi;
	i &= xi;
    2288:	61 2e       	mov	r6, r17
    228a:	71 2c       	mov	r7, r1
    228c:	63 23       	and	r22, r19
    228e:	69 83       	std	Y+1, r22	; 0x01
// uint16_t LFSMlh(uint16_t xi, uint16_t xf)***/
uint16_t LFSMlh(uint16_t xi, uint16_t xf)
{
	uint16_t i;
	i = xf ^ xi;
	i &= xf;
    2290:	26 2e       	mov	r2, r22
    2292:	31 2c       	mov	r3, r1
	struct lfsmdata* ptmp1 = &tmp1;
	uint16_t HL, LH;
	HL = LFSMhl(r->input, input);
	LH = LFSMlh(r->input, input);
	if(page > 0){ // Enable
		if(HL || LH){ // There is a change ?
    2294:	61 14       	cp	r6, r1
    2296:	71 04       	cpc	r7, r1
    2298:	39 f0       	breq	.+14     	; 0x22a8 <LFSMlearn+0x60>
			for(i1 = 0; i1 < r->sizeeeprom; i1++){
    229a:	fc 01       	movw	r30, r24
    229c:	22 81       	ldd	r18, Z+2	; 0x02
    229e:	33 81       	ldd	r19, Z+3	; 0x03
    22a0:	23 2b       	or	r18, r19
    22a2:	39 f4       	brne	.+14     	; 0x22b2 <LFSMlearn+0x6a>
    22a4:	80 e0       	ldi	r24, 0x00	; 0
    22a6:	c4 c0       	rjmp	.+392    	; 0x2430 <LFSMlearn+0x1e8>
	struct lfsmdata* ptmp1 = &tmp1;
	uint16_t HL, LH;
	HL = LFSMhl(r->input, input);
	LH = LFSMlh(r->input, input);
	if(page > 0){ // Enable
		if(HL || LH){ // There is a change ?
    22a8:	21 14       	cp	r2, r1
    22aa:	31 04       	cpc	r3, r1
    22ac:	b1 f7       	brne	.-20     	; 0x229a <LFSMlearn+0x52>
}
// uint8_t LFSMlearn(struct lfsm *r, const uint8_t input, const uint16_t next, const uint16_t mask, const uint8_t page)
uint8_t LFSMlearn(struct lfsm *r, const uint8_t input, const uint16_t next, const uint16_t mask, const uint8_t page)
{
	uint16_t i1;
	uint8_t status = 0;
    22ae:	80 e0       	ldi	r24, 0x00	; 0
    22b0:	bf c0       	rjmp	.+382    	; 0x2430 <LFSMlearn+0x1e8>
    22b2:	2a 01       	movw	r4, r20
    22b4:	9b 83       	std	Y+3, r25	; 0x03
    22b6:	8a 83       	std	Y+2, r24	; 0x02
    22b8:	e4 80       	ldd	r14, Z+4	; 0x04
    22ba:	f1 2c       	mov	r15, r1
	uint8_t sizeblock = r->sizeblock;
    22bc:	c1 2c       	mov	r12, r1
    22be:	d1 2c       	mov	r13, r1
    22c0:	a1 2c       	mov	r10, r1
    22c2:	b1 2c       	mov	r11, r1
	HL = LFSMhl(r->input, input);
	LH = LFSMlh(r->input, input);
	if(page > 0){ // Enable
		if(HL || LH){ // There is a change ?
			for(i1 = 0; i1 < r->sizeeeprom; i1++){
				r->eprom->read_block(pdata, (const void*)(i1 * sizeblock), sizeblock);
    22c4:	aa 81       	ldd	r26, Y+2	; 0x02
    22c6:	bb 81       	ldd	r27, Y+3	; 0x03
    22c8:	ed 91       	ld	r30, X+
    22ca:	fc 91       	ld	r31, X
    22cc:	00 8c       	ldd	r0, Z+24	; 0x18
    22ce:	f1 8d       	ldd	r31, Z+25	; 0x19
    22d0:	e0 2d       	mov	r30, r0
    22d2:	a7 01       	movw	r20, r14
    22d4:	b6 01       	movw	r22, r12
    22d6:	8f e0       	ldi	r24, 0x0F	; 15
    22d8:	93 e0       	ldi	r25, 0x03	; 3
    22da:	09 95       	icall
				if(pdata->page){ // Find if it exists already
    22dc:	80 91 0f 03 	lds	r24, 0x030F	; 0x80030f <data>
    22e0:	88 23       	and	r24, r24
    22e2:	f9 f0       	breq	.+62     	; 0x2322 <LFSMlearn+0xda>
					if( (pdata->page == 1 && pdata->inhl == HL && pdata->inlh == LH)
    22e4:	81 30       	cpi	r24, 0x01	; 1
    22e6:	81 f0       	breq	.+32     	; 0x2308 <LFSMlearn+0xc0>
					|| (pdata->page == page && (pdata->feedback & mask) == (r->output & mask) && pdata->inhl == HL && pdata->inlh == LH) ){
    22e8:	08 13       	cpse	r16, r24
    22ea:	1b c0       	rjmp	.+54     	; 0x2322 <LFSMlearn+0xda>
    22ec:	20 91 10 03 	lds	r18, 0x0310	; 0x800310 <data+0x1>
    22f0:	30 91 11 03 	lds	r19, 0x0311	; 0x800311 <data+0x2>
    22f4:	ea 81       	ldd	r30, Y+2	; 0x02
    22f6:	fb 81       	ldd	r31, Y+3	; 0x03
    22f8:	87 81       	ldd	r24, Z+7	; 0x07
    22fa:	90 85       	ldd	r25, Z+8	; 0x08
    22fc:	82 27       	eor	r24, r18
    22fe:	93 27       	eor	r25, r19
    2300:	88 21       	and	r24, r8
    2302:	99 21       	and	r25, r9
    2304:	89 2b       	or	r24, r25
    2306:	69 f4       	brne	.+26     	; 0x2322 <LFSMlearn+0xda>
    2308:	80 91 12 03 	lds	r24, 0x0312	; 0x800312 <data+0x3>
    230c:	90 e0       	ldi	r25, 0x00	; 0
    230e:	86 15       	cp	r24, r6
    2310:	97 05       	cpc	r25, r7
    2312:	39 f4       	brne	.+14     	; 0x2322 <LFSMlearn+0xda>
    2314:	80 91 13 03 	lds	r24, 0x0313	; 0x800313 <data+0x4>
    2318:	90 e0       	ldi	r25, 0x00	; 0
    231a:	82 15       	cp	r24, r2
    231c:	93 05       	cpc	r25, r3
    231e:	09 f4       	brne	.+2      	; 0x2322 <LFSMlearn+0xda>
    2320:	71 c0       	rjmp	.+226    	; 0x2404 <LFSMlearn+0x1bc>
	uint16_t HL, LH;
	HL = LFSMhl(r->input, input);
	LH = LFSMlh(r->input, input);
	if(page > 0){ // Enable
		if(HL || LH){ // There is a change ?
			for(i1 = 0; i1 < r->sizeeeprom; i1++){
    2322:	ff ef       	ldi	r31, 0xFF	; 255
    2324:	af 1a       	sub	r10, r31
    2326:	bf 0a       	sbc	r11, r31
    2328:	ce 0c       	add	r12, r14
    232a:	df 1c       	adc	r13, r15
    232c:	aa 81       	ldd	r26, Y+2	; 0x02
    232e:	bb 81       	ldd	r27, Y+3	; 0x03
    2330:	12 96       	adiw	r26, 0x02	; 2
    2332:	8d 91       	ld	r24, X+
    2334:	9c 91       	ld	r25, X
    2336:	13 97       	sbiw	r26, 0x03	; 3
    2338:	a8 16       	cp	r10, r24
    233a:	b9 06       	cpc	r11, r25
    233c:	18 f2       	brcs	.-122    	; 0x22c4 <LFSMlearn+0x7c>
    233e:	64 c0       	rjmp	.+200    	; 0x2408 <LFSMlearn+0x1c0>
			ptmp1->feedback = r->output;
			ptmp1->inhl = HL;
			ptmp1->inlh = LH;
			ptmp1->mask = mask;
			if(page > 1){ // Local logic
				ptmp1->outhl = LFSMhl(r->output, next) & mask;
    2340:	ea e1       	ldi	r30, 0x1A	; 26
    2342:	f3 e0       	ldi	r31, 0x03	; 3
    2344:	c9 01       	movw	r24, r18
    2346:	84 25       	eor	r24, r4
    2348:	95 25       	eor	r25, r5
    234a:	88 21       	and	r24, r8
    234c:	99 21       	and	r25, r9
    234e:	82 23       	and	r24, r18
    2350:	93 23       	and	r25, r19
    2352:	90 87       	std	Z+8, r25	; 0x08
    2354:	87 83       	std	Z+7, r24	; 0x07
				ptmp1->outlh = LFSMlh(r->output, next) & mask;
    2356:	aa 81       	ldd	r26, Y+2	; 0x02
    2358:	bb 81       	ldd	r27, Y+3	; 0x03
    235a:	17 96       	adiw	r26, 0x07	; 7
    235c:	2d 91       	ld	r18, X+
    235e:	3c 91       	ld	r19, X
    2360:	18 97       	sbiw	r26, 0x08	; 8
    2362:	24 25       	eor	r18, r4
    2364:	35 25       	eor	r19, r5
    2366:	82 22       	and	r8, r18
    2368:	93 22       	and	r9, r19
    236a:	48 20       	and	r4, r8
    236c:	59 20       	and	r5, r9
    236e:	52 86       	std	Z+10, r5	; 0x0a
    2370:	41 86       	std	Z+9, r4	; 0x09
    2372:	0d c0       	rjmp	.+26     	; 0x238e <LFSMlearn+0x146>
			}else{ // Global logic
				ptmp1->outhl = LFSMhl(BYTEH, next) & mask;
    2374:	ea e1       	ldi	r30, 0x1A	; 26
    2376:	f3 e0       	ldi	r31, 0x03	; 3
    2378:	c2 01       	movw	r24, r4
    237a:	80 95       	com	r24
    237c:	90 95       	com	r25
    237e:	88 21       	and	r24, r8
    2380:	99 21       	and	r25, r9
    2382:	90 87       	std	Z+8, r25	; 0x08
    2384:	87 83       	std	Z+7, r24	; 0x07
				ptmp1->outlh = LFSMlh(BYTEL, next) & mask;
    2386:	84 20       	and	r8, r4
    2388:	95 20       	and	r9, r5
    238a:	92 86       	std	Z+10, r9	; 0x0a
    238c:	81 86       	std	Z+9, r8	; 0x09
			}
			for(i1 = 0; i1 < r->sizeeeprom; i1++){ // upload to free space in memory
    238e:	ea 81       	ldd	r30, Y+2	; 0x02
    2390:	fb 81       	ldd	r31, Y+3	; 0x03
    2392:	82 81       	ldd	r24, Z+2	; 0x02
    2394:	93 81       	ldd	r25, Z+3	; 0x03
    2396:	89 2b       	or	r24, r25
    2398:	89 f1       	breq	.+98     	; 0x23fc <LFSMlearn+0x1b4>
    239a:	00 e0       	ldi	r16, 0x00	; 0
    239c:	10 e0       	ldi	r17, 0x00	; 0
    239e:	c1 2c       	mov	r12, r1
    23a0:	d1 2c       	mov	r13, r1
				r->eprom->read_block(pdata, (const void*)(i1 * sizeblock), sizeblock);
    23a2:	aa 81       	ldd	r26, Y+2	; 0x02
    23a4:	bb 81       	ldd	r27, Y+3	; 0x03
    23a6:	ed 91       	ld	r30, X+
    23a8:	fc 91       	ld	r31, X
    23aa:	00 8c       	ldd	r0, Z+24	; 0x18
    23ac:	f1 8d       	ldd	r31, Z+25	; 0x19
    23ae:	e0 2d       	mov	r30, r0
    23b0:	a7 01       	movw	r20, r14
    23b2:	b8 01       	movw	r22, r16
    23b4:	8f e0       	ldi	r24, 0x0F	; 15
    23b6:	93 e0       	ldi	r25, 0x03	; 3
    23b8:	09 95       	icall
				if(pdata->page == 0){
    23ba:	80 91 0f 03 	lds	r24, 0x030F	; 0x80030f <data>
    23be:	81 11       	cpse	r24, r1
    23c0:	0f c0       	rjmp	.+30     	; 0x23e0 <LFSMlearn+0x198>
					r->eprom->update_block(ptmp1, (void*)(i1 * sizeblock), sizeblock);
    23c2:	aa 81       	ldd	r26, Y+2	; 0x02
    23c4:	bb 81       	ldd	r27, Y+3	; 0x03
    23c6:	ed 91       	ld	r30, X+
    23c8:	fc 91       	ld	r31, X
    23ca:	04 8c       	ldd	r0, Z+28	; 0x1c
    23cc:	f5 8d       	ldd	r31, Z+29	; 0x1d
    23ce:	e0 2d       	mov	r30, r0
    23d0:	a7 01       	movw	r20, r14
    23d2:	60 2f       	mov	r22, r16
    23d4:	71 2f       	mov	r23, r17
    23d6:	8a e1       	ldi	r24, 0x1A	; 26
    23d8:	93 e0       	ldi	r25, 0x03	; 3
    23da:	09 95       	icall
					status = 2; // Uploaded to eeprom
    23dc:	82 e0       	ldi	r24, 0x02	; 2
					break;
    23de:	28 c0       	rjmp	.+80     	; 0x2430 <LFSMlearn+0x1e8>
				ptmp1->outlh = LFSMlh(r->output, next) & mask;
			}else{ // Global logic
				ptmp1->outhl = LFSMhl(BYTEH, next) & mask;
				ptmp1->outlh = LFSMlh(BYTEL, next) & mask;
			}
			for(i1 = 0; i1 < r->sizeeeprom; i1++){ // upload to free space in memory
    23e0:	bf ef       	ldi	r27, 0xFF	; 255
    23e2:	cb 1a       	sub	r12, r27
    23e4:	db 0a       	sbc	r13, r27
    23e6:	0e 0d       	add	r16, r14
    23e8:	1f 1d       	adc	r17, r15
    23ea:	ea 81       	ldd	r30, Y+2	; 0x02
    23ec:	fb 81       	ldd	r31, Y+3	; 0x03
    23ee:	82 81       	ldd	r24, Z+2	; 0x02
    23f0:	93 81       	ldd	r25, Z+3	; 0x03
    23f2:	c8 16       	cp	r12, r24
    23f4:	d9 06       	cpc	r13, r25
    23f6:	a8 f2       	brcs	.-86     	; 0x23a2 <LFSMlearn+0x15a>
				if(pdata->page == 0){
					r->eprom->update_block(ptmp1, (void*)(i1 * sizeblock), sizeblock);
					status = 2; // Uploaded to eeprom
					break;
				}
				status = 3; // Memory full
    23f8:	83 e0       	ldi	r24, 0x03	; 3
    23fa:	1a c0       	rjmp	.+52     	; 0x2430 <LFSMlearn+0x1e8>
				ptmp1->outlh = LFSMlh(r->output, next) & mask;
			}else{ // Global logic
				ptmp1->outhl = LFSMhl(BYTEH, next) & mask;
				ptmp1->outlh = LFSMlh(BYTEL, next) & mask;
			}
			for(i1 = 0; i1 < r->sizeeeprom; i1++){ // upload to free space in memory
    23fc:	81 e0       	ldi	r24, 0x01	; 1
    23fe:	18 c0       	rjmp	.+48     	; 0x2430 <LFSMlearn+0x1e8>
}
// uint8_t LFSMlearn(struct lfsm *r, const uint8_t input, const uint16_t next, const uint16_t mask, const uint8_t page)
uint8_t LFSMlearn(struct lfsm *r, const uint8_t input, const uint16_t next, const uint16_t mask, const uint8_t page)
{
	uint16_t i1;
	uint8_t status = 0;
    2400:	80 e0       	ldi	r24, 0x00	; 0
    2402:	16 c0       	rjmp	.+44     	; 0x2430 <LFSMlearn+0x1e8>
			for(i1 = 0; i1 < r->sizeeeprom; i1++){
				r->eprom->read_block(pdata, (const void*)(i1 * sizeblock), sizeblock);
				if(pdata->page){ // Find if it exists already
					if( (pdata->page == 1 && pdata->inhl == HL && pdata->inlh == LH)
					|| (pdata->page == page && (pdata->feedback & mask) == (r->output & mask) && pdata->inhl == HL && pdata->inlh == LH) ){
						status = 4; // Already exists
    2404:	84 e0       	ldi	r24, 0x04	; 4
		case 4: // Already exists
		break;
		default:
		break;
	}// End switch
	return status;
    2406:	14 c0       	rjmp	.+40     	; 0x2430 <LFSMlearn+0x1e8>
	}
	switch (status){
		case 0: // Not enabled
		break;
		case 1: // Record new entry
			ptmp1->page = page;
    2408:	ea e1       	ldi	r30, 0x1A	; 26
    240a:	f3 e0       	ldi	r31, 0x03	; 3
    240c:	00 83       	st	Z, r16
			ptmp1->feedback = r->output;
    240e:	aa 81       	ldd	r26, Y+2	; 0x02
    2410:	bb 81       	ldd	r27, Y+3	; 0x03
    2412:	17 96       	adiw	r26, 0x07	; 7
    2414:	2d 91       	ld	r18, X+
    2416:	3c 91       	ld	r19, X
    2418:	18 97       	sbiw	r26, 0x08	; 8
    241a:	32 83       	std	Z+2, r19	; 0x02
    241c:	21 83       	std	Z+1, r18	; 0x01
			ptmp1->inhl = HL;
    241e:	13 83       	std	Z+3, r17	; 0x03
			ptmp1->inlh = LH;
    2420:	b9 81       	ldd	r27, Y+1	; 0x01
    2422:	b4 83       	std	Z+4, r27	; 0x04
			ptmp1->mask = mask;
    2424:	96 82       	std	Z+6, r9	; 0x06
    2426:	85 82       	std	Z+5, r8	; 0x05
			if(page > 1){ // Local logic
    2428:	02 30       	cpi	r16, 0x02	; 2
    242a:	08 f0       	brcs	.+2      	; 0x242e <LFSMlearn+0x1e6>
    242c:	89 cf       	rjmp	.-238    	; 0x2340 <LFSMlearn+0xf8>
    242e:	a2 cf       	rjmp	.-188    	; 0x2374 <LFSMlearn+0x12c>
		break;
		default:
		break;
	}// End switch
	return status;
}
    2430:	0f 90       	pop	r0
    2432:	0f 90       	pop	r0
    2434:	0f 90       	pop	r0
    2436:	df 91       	pop	r29
    2438:	cf 91       	pop	r28
    243a:	1f 91       	pop	r17
    243c:	0f 91       	pop	r16
    243e:	ff 90       	pop	r15
    2440:	ef 90       	pop	r14
    2442:	df 90       	pop	r13
    2444:	cf 90       	pop	r12
    2446:	bf 90       	pop	r11
    2448:	af 90       	pop	r10
    244a:	9f 90       	pop	r9
    244c:	8f 90       	pop	r8
    244e:	7f 90       	pop	r7
    2450:	6f 90       	pop	r6
    2452:	5f 90       	pop	r5
    2454:	4f 90       	pop	r4
    2456:	3f 90       	pop	r3
    2458:	2f 90       	pop	r2
    245a:	08 95       	ret

0000245c <LFSMenable>:
uint16_t LFSMoutputcalc(uint16_t feedback, uint16_t hl, uint16_t lh, uint16_t mask);

/*** Procedure & Function ***/
// LFSM LFSMenable(EEPROM* eeprom, const uint16_t sizeeeprom)
LFSM LFSMenable(EEPROM* eeprom, const uint16_t sizeeeprom)
{
    245c:	fc 01       	movw	r30, r24
	r.getoutput = LFSMgetoutput;
	r.getstatus = LFSMgetstatus;
	r.setoutput = LFSMsetoutput;
	r.getpage = LFSMgetpage;
	r.setpage = LFSMsetpage;
	return r;
    245e:	71 83       	std	Z+1, r23	; 0x01
    2460:	60 83       	st	Z, r22
    2462:	53 83       	std	Z+3, r21	; 0x03
    2464:	42 83       	std	Z+2, r20	; 0x02
    2466:	8b e0       	ldi	r24, 0x0B	; 11
    2468:	84 83       	std	Z+4, r24	; 0x04
    246a:	15 82       	std	Z+5, r1	; 0x05
    246c:	10 86       	std	Z+8, r1	; 0x08
    246e:	17 82       	std	Z+7, r1	; 0x07
    2470:	82 e8       	ldi	r24, 0x82	; 130
    2472:	9d e0       	ldi	r25, 0x0D	; 13
    2474:	93 87       	std	Z+11, r25	; 0x0b
    2476:	82 87       	std	Z+10, r24	; 0x0a
    2478:	84 e2       	ldi	r24, 0x24	; 36
    247a:	91 e1       	ldi	r25, 0x11	; 17
    247c:	95 87       	std	Z+13, r25	; 0x0d
    247e:	84 87       	std	Z+12, r24	; 0x0c
    2480:	81 ed       	ldi	r24, 0xD1	; 209
    2482:	9c e0       	ldi	r25, 0x0C	; 12
    2484:	97 87       	std	Z+15, r25	; 0x0f
    2486:	86 87       	std	Z+14, r24	; 0x0e
    2488:	8b ed       	ldi	r24, 0xDB	; 219
    248a:	9f e0       	ldi	r25, 0x0F	; 15
    248c:	91 8b       	std	Z+17, r25	; 0x11
    248e:	80 8b       	std	Z+16, r24	; 0x10
    2490:	8b e0       	ldi	r24, 0x0B	; 11
    2492:	9f e0       	ldi	r25, 0x0F	; 15
    2494:	93 8b       	std	Z+19, r25	; 0x13
    2496:	82 8b       	std	Z+18, r24	; 0x12
    2498:	87 e1       	ldi	r24, 0x17	; 23
    249a:	9d e0       	ldi	r25, 0x0D	; 13
    249c:	95 8b       	std	Z+21, r25	; 0x15
    249e:	84 8b       	std	Z+20, r24	; 0x14
    24a0:	80 e7       	ldi	r24, 0x70	; 112
    24a2:	9d e0       	ldi	r25, 0x0D	; 13
    24a4:	97 8b       	std	Z+23, r25	; 0x17
    24a6:	86 8b       	std	Z+22, r24	; 0x16
    24a8:	84 e7       	ldi	r24, 0x74	; 116
    24aa:	9d e0       	ldi	r25, 0x0D	; 13
    24ac:	91 8f       	std	Z+25, r25	; 0x19
    24ae:	80 8f       	std	Z+24, r24	; 0x18
    24b0:	87 e7       	ldi	r24, 0x77	; 119
    24b2:	9d e0       	ldi	r25, 0x0D	; 13
    24b4:	93 8f       	std	Z+27, r25	; 0x1b
    24b6:	82 8f       	std	Z+26, r24	; 0x1a
    24b8:	8c e7       	ldi	r24, 0x7C	; 124
    24ba:	9d e0       	ldi	r25, 0x0D	; 13
    24bc:	95 8f       	std	Z+29, r25	; 0x1d
    24be:	84 8f       	std	Z+28, r24	; 0x1c
    24c0:	8f e7       	ldi	r24, 0x7F	; 127
    24c2:	9d e0       	ldi	r25, 0x0D	; 13
    24c4:	97 8f       	std	Z+31, r25	; 0x1f
    24c6:	86 8f       	std	Z+30, r24	; 0x1e
}
    24c8:	cf 01       	movw	r24, r30
    24ca:	08 95       	ret

000024cc <__vector_20>:
{
    UART1_TxHead = (UART1_TxHead + 1) & UART_TX_BUFFER_MASK;
    while ( UART1_TxHead == UART1_TxTail ){
		; /* wait for free space in buffer, Tx interrupt will send to free space [Poll] */
	}	
    UART1_TxBuf[UART1_TxHead] = data;
    24cc:	1f 92       	push	r1
    24ce:	0f 92       	push	r0
    24d0:	0f b6       	in	r0, 0x3f	; 63
    24d2:	0f 92       	push	r0
    24d4:	11 24       	eor	r1, r1
    24d6:	8f 93       	push	r24
    24d8:	9f 93       	push	r25
    24da:	ef 93       	push	r30
    24dc:	ff 93       	push	r31
    24de:	80 91 c0 00 	lds	r24, 0x00C0	; 0x8000c0 <__DATA_REGION_ORIGIN__+0x60>
    24e2:	90 91 c1 00 	lds	r25, 0x00C1	; 0x8000c1 <__DATA_REGION_ORIGIN__+0x61>
    24e6:	88 71       	andi	r24, 0x18	; 24
    24e8:	80 93 91 02 	sts	0x0291, r24	; 0x800291 <UART_LastRxError>
    24ec:	e0 91 93 02 	lds	r30, 0x0293	; 0x800293 <UART_RxHead>
    24f0:	ef 5f       	subi	r30, 0xFF	; 255
    24f2:	ef 71       	andi	r30, 0x1F	; 31
    24f4:	80 91 92 02 	lds	r24, 0x0292	; 0x800292 <UART_RxTail>
    24f8:	e8 13       	cpse	r30, r24
    24fa:	04 c0       	rjmp	.+8      	; 0x2504 <__vector_20+0x38>
    24fc:	82 e0       	ldi	r24, 0x02	; 2
    24fe:	80 93 91 02 	sts	0x0291, r24	; 0x800291 <UART_LastRxError>
    2502:	12 c0       	rjmp	.+36     	; 0x2528 <__vector_20+0x5c>
    2504:	90 91 c6 00 	lds	r25, 0x00C6	; 0x8000c6 <__DATA_REGION_ORIGIN__+0x66>
    2508:	e0 93 93 02 	sts	0x0293, r30	; 0x800293 <UART_RxHead>
    250c:	80 91 91 02 	lds	r24, 0x0291	; 0x800291 <UART_LastRxError>
    2510:	88 23       	and	r24, r24
    2512:	31 f0       	breq	.+12     	; 0x2520 <__vector_20+0x54>
    2514:	f0 e0       	ldi	r31, 0x00	; 0
    2516:	ea 56       	subi	r30, 0x6A	; 106
    2518:	fd 4f       	sbci	r31, 0xFD	; 253
    251a:	88 e5       	ldi	r24, 0x58	; 88
    251c:	80 83       	st	Z, r24
    251e:	04 c0       	rjmp	.+8      	; 0x2528 <__vector_20+0x5c>
    2520:	f0 e0       	ldi	r31, 0x00	; 0
    2522:	ea 56       	subi	r30, 0x6A	; 106
    2524:	fd 4f       	sbci	r31, 0xFD	; 253
    2526:	90 83       	st	Z, r25
    2528:	ff 91       	pop	r31
    252a:	ef 91       	pop	r30
    252c:	9f 91       	pop	r25
    252e:	8f 91       	pop	r24
    2530:	0f 90       	pop	r0
    2532:	0f be       	out	0x3f, r0	; 63
    2534:	0f 90       	pop	r0
    2536:	1f 90       	pop	r1
    2538:	18 95       	reti

0000253a <__vector_28>:
    253a:	1f 92       	push	r1
    253c:	0f 92       	push	r0
    253e:	0f b6       	in	r0, 0x3f	; 63
    2540:	0f 92       	push	r0
    2542:	11 24       	eor	r1, r1
    2544:	8f 93       	push	r24
    2546:	9f 93       	push	r25
    2548:	ef 93       	push	r30
    254a:	ff 93       	push	r31
    254c:	e0 91 94 02 	lds	r30, 0x0294	; 0x800294 <UART_TxTail>
    2550:	80 91 94 02 	lds	r24, 0x0294	; 0x800294 <UART_TxTail>
    2554:	8f 5f       	subi	r24, 0xFF	; 255
    2556:	8f 71       	andi	r24, 0x1F	; 31
    2558:	80 93 94 02 	sts	0x0294, r24	; 0x800294 <UART_TxTail>
    255c:	f0 e0       	ldi	r31, 0x00	; 0
    255e:	ea 54       	subi	r30, 0x4A	; 74
    2560:	fd 4f       	sbci	r31, 0xFD	; 253
    2562:	80 81       	ld	r24, Z
    2564:	80 93 c6 00 	sts	0x00C6, r24	; 0x8000c6 <__DATA_REGION_ORIGIN__+0x66>
    2568:	90 91 94 02 	lds	r25, 0x0294	; 0x800294 <UART_TxTail>
    256c:	80 91 95 02 	lds	r24, 0x0295	; 0x800295 <UART_TxHead>
    2570:	98 13       	cpse	r25, r24
    2572:	05 c0       	rjmp	.+10     	; 0x257e <__vector_28+0x44>
    2574:	e1 ec       	ldi	r30, 0xC1	; 193
    2576:	f0 e0       	ldi	r31, 0x00	; 0
    2578:	80 81       	ld	r24, Z
    257a:	8f 7d       	andi	r24, 0xDF	; 223
    257c:	80 83       	st	Z, r24
    257e:	ff 91       	pop	r31
    2580:	ef 91       	pop	r30
    2582:	9f 91       	pop	r25
    2584:	8f 91       	pop	r24
    2586:	0f 90       	pop	r0
    2588:	0f be       	out	0x3f, r0	; 63
    258a:	0f 90       	pop	r0
    258c:	1f 90       	pop	r1
    258e:	18 95       	reti

00002590 <__vector_21>:
SIGNAL(UART1_RECEIVE_INTERRUPT)
/*************************************************************************
Function: UART1 Receive Complete interrupt
Purpose:  called when the UART1 has received a character
**************************************************************************/
{
    2590:	1f 92       	push	r1
    2592:	0f 92       	push	r0
    2594:	0f b6       	in	r0, 0x3f	; 63
    2596:	0f 92       	push	r0
    2598:	11 24       	eor	r1, r1
    259a:	8f 93       	push	r24
    259c:	9f 93       	push	r25
    259e:	ef 93       	push	r30
    25a0:	ff 93       	push	r31
    unsigned char tmphead;
	unsigned char data;
	unsigned char bit9;
    unsigned char usr;
    /* read UART status register and UART data register */
	usr  = UART1_STATUS;
    25a2:	80 91 c8 00 	lds	r24, 0x00C8	; 0x8000c8 <__DATA_REGION_ORIGIN__+0x68>
    bit9 = UART1_CONTROL;
    25a6:	90 91 c9 00 	lds	r25, 0x00C9	; 0x8000c9 <__DATA_REGION_ORIGIN__+0x69>
    bit9 = 0x01 & (bit9>>1);
    /* */
    UART1_LastRxError = (usr & (_BV(FE1)|_BV(DOR1)));
    25aa:	88 71       	andi	r24, 0x18	; 24
    25ac:	80 93 4c 02 	sts	0x024C, r24	; 0x80024c <UART1_LastRxError>
	/* calculate buffer index */ 
    tmphead = ( UART1_RxHead + 1) & UART_RX_BUFFER_MASK;
    25b0:	e0 91 4e 02 	lds	r30, 0x024E	; 0x80024e <UART1_RxHead>
    25b4:	ef 5f       	subi	r30, 0xFF	; 255
    25b6:	ef 71       	andi	r30, 0x1F	; 31
    if ( tmphead == UART1_RxTail ) {	
    25b8:	80 91 4d 02 	lds	r24, 0x024D	; 0x80024d <UART1_RxTail>
    25bc:	e8 13       	cpse	r30, r24
    25be:	04 c0       	rjmp	.+8      	; 0x25c8 <__vector_21+0x38>
        /* error: receive buffer overflow, caracter is lost*/
        UART1_LastRxError = UART_BUFFER_OVERFLOW >> 8; 
    25c0:	82 e0       	ldi	r24, 0x02	; 2
    25c2:	80 93 4c 02 	sts	0x024C, r24	; 0x80024c <UART1_LastRxError>
    25c6:	12 c0       	rjmp	.+36     	; 0x25ec <__vector_21+0x5c>
	}else{
		data = UART1_DATA;
    25c8:	90 91 ce 00 	lds	r25, 0x00CE	; 0x8000ce <__DATA_REGION_ORIGIN__+0x6e>
        /* store new index */
        UART1_RxHead = tmphead;
    25cc:	e0 93 4e 02 	sts	0x024E, r30	; 0x80024e <UART1_RxHead>
		if(UART1_LastRxError){
    25d0:	80 91 4c 02 	lds	r24, 0x024C	; 0x80024c <UART1_LastRxError>
    25d4:	88 23       	and	r24, r24
    25d6:	31 f0       	breq	.+12     	; 0x25e4 <__vector_21+0x54>
			/* store indication data error in buffer */
			UART1_RxBuf[tmphead] = 'X';
    25d8:	f0 e0       	ldi	r31, 0x00	; 0
    25da:	ef 5a       	subi	r30, 0xAF	; 175
    25dc:	fd 4f       	sbci	r31, 0xFD	; 253
    25de:	88 e5       	ldi	r24, 0x58	; 88
    25e0:	80 83       	st	Z, r24
    25e2:	04 c0       	rjmp	.+8      	; 0x25ec <__vector_21+0x5c>
		}else{
			/* store received data in buffer */
			UART1_RxBuf[tmphead] = data;
    25e4:	f0 e0       	ldi	r31, 0x00	; 0
    25e6:	ef 5a       	subi	r30, 0xAF	; 175
    25e8:	fd 4f       	sbci	r31, 0xFD	; 253
    25ea:	90 83       	st	Z, r25
		}
    }
}
    25ec:	ff 91       	pop	r31
    25ee:	ef 91       	pop	r30
    25f0:	9f 91       	pop	r25
    25f2:	8f 91       	pop	r24
    25f4:	0f 90       	pop	r0
    25f6:	0f be       	out	0x3f, r0	; 63
    25f8:	0f 90       	pop	r0
    25fa:	1f 90       	pop	r1
    25fc:	18 95       	reti

000025fe <__vector_29>:
SIGNAL(UART1_TRANSMIT_INTERRUPT)
/*************************************************************************
Function: UART1 Data Register Empty interrupt
Purpose:  called when the UART1 is ready to transmit the next byte
**************************************************************************/
{
    25fe:	1f 92       	push	r1
    2600:	0f 92       	push	r0
    2602:	0f b6       	in	r0, 0x3f	; 63
    2604:	0f 92       	push	r0
    2606:	11 24       	eor	r1, r1
    2608:	8f 93       	push	r24
    260a:	9f 93       	push	r25
    260c:	ef 93       	push	r30
    260e:	ff 93       	push	r31
	uint8_t tail = UART1_TxTail;
    2610:	e0 91 4f 02 	lds	r30, 0x024F	; 0x80024f <UART1_TxTail>
	UART1_TxTail = (UART1_TxTail + 1) & UART_TX_BUFFER_MASK;
    2614:	80 91 4f 02 	lds	r24, 0x024F	; 0x80024f <UART1_TxTail>
    2618:	8f 5f       	subi	r24, 0xFF	; 255
    261a:	8f 71       	andi	r24, 0x1F	; 31
    261c:	80 93 4f 02 	sts	0x024F, r24	; 0x80024f <UART1_TxTail>
    UART1_DATA = UART1_TxBuf[tail];
    2620:	f0 e0       	ldi	r31, 0x00	; 0
    2622:	ef 58       	subi	r30, 0x8F	; 143
    2624:	fd 4f       	sbci	r31, 0xFD	; 253
    2626:	80 81       	ld	r24, Z
    2628:	80 93 ce 00 	sts	0x00CE, r24	; 0x8000ce <__DATA_REGION_ORIGIN__+0x6e>
	if ( UART1_TxTail == UART1_TxHead ) {
    262c:	90 91 4f 02 	lds	r25, 0x024F	; 0x80024f <UART1_TxTail>
    2630:	80 91 50 02 	lds	r24, 0x0250	; 0x800250 <UART1_TxHead>
    2634:	98 13       	cpse	r25, r24
    2636:	05 c0       	rjmp	.+10     	; 0x2642 <__vector_29+0x44>
        UART1_CONTROL &= ~_BV(UART1_UDRIE);
    2638:	e9 ec       	ldi	r30, 0xC9	; 201
    263a:	f0 e0       	ldi	r31, 0x00	; 0
    263c:	80 81       	ld	r24, Z
    263e:	8f 7d       	andi	r24, 0xDF	; 223
    2640:	80 83       	st	Z, r24
    }
}
    2642:	ff 91       	pop	r31
    2644:	ef 91       	pop	r30
    2646:	9f 91       	pop	r25
    2648:	8f 91       	pop	r24
    264a:	0f 90       	pop	r0
    264c:	0f be       	out	0x3f, r0	; 63
    264e:	0f 90       	pop	r0
    2650:	1f 90       	pop	r1
    2652:	18 95       	reti

00002654 <PORTINIT>:
		PORTB=lfsm.getoutput(&lfsm);
	}//End while
}//End main
/***Def***/
void PORTINIT(void){
	DDRB=0XFF;
    2654:	8f ef       	ldi	r24, 0xFF	; 255
    2656:	84 b9       	out	0x04, r24	; 4
	PORTB=0XFF;
    2658:	85 b9       	out	0x05, r24	; 5
	DDRD=0X00;
    265a:	1a b8       	out	0x0a, r1	; 10
	PORTD=0XFF;
    265c:	8b b9       	out	0x0b, r24	; 11
    265e:	08 95       	ret

00002660 <main>:
#include "lfsm.h"
char* string;
#define True 1
void PORTINIT(void);
int main(void)
{
    2660:	cf 93       	push	r28
    2662:	df 93       	push	r29
    2664:	cd b7       	in	r28, 0x3d	; 61
    2666:	de b7       	in	r29, 0x3e	; 62
    2668:	c2 5b       	subi	r28, 0xB2	; 178
    266a:	d1 09       	sbc	r29, r1
    266c:	0f b6       	in	r0, 0x3f	; 63
    266e:	f8 94       	cli
    2670:	de bf       	out	0x3e, r29	; 62
    2672:	0f be       	out	0x3f, r0	; 63
    2674:	cd bf       	out	0x3d, r28	; 61
	PORTINIT();
    2676:	0e 94 2a 13 	call	0x2654	; 0x2654 <PORTINIT>
	keypadata keypadinput;
	uint8_t output=0;
	uint8_t mask=0;
	uint8_t page=0;
	uint8_t n;
	KEYPAD keypad = KEYPADenable(&DDRA,&PINA,&PORTA);
    267a:	42 e2       	ldi	r20, 0x22	; 34
    267c:	50 e0       	ldi	r21, 0x00	; 0
    267e:	60 e2       	ldi	r22, 0x20	; 32
    2680:	70 e0       	ldi	r23, 0x00	; 0
    2682:	81 e2       	ldi	r24, 0x21	; 33
    2684:	90 e0       	ldi	r25, 0x00	; 0
    2686:	0e 94 8c 09 	call	0x1318	; 0x1318 <KEYPADenable>
    268a:	2e 83       	std	Y+6, r18	; 0x06
    268c:	3f 83       	std	Y+7, r19	; 0x07
    268e:	48 87       	std	Y+8, r20	; 0x08
    2690:	59 87       	std	Y+9, r21	; 0x09
    2692:	6a 87       	std	Y+10, r22	; 0x0a
    2694:	7b 87       	std	Y+11, r23	; 0x0b
    2696:	8c 87       	std	Y+12, r24	; 0x0c
    2698:	9d 87       	std	Y+13, r25	; 0x0d
    269a:	8c 84       	ldd	r8, Y+12	; 0x0c
    269c:	9d 84       	ldd	r9, Y+13	; 0x0d
	LCD0 lcd = LCD0enable(&DDRC,&PINC,&PORTC);
    269e:	28 e2       	ldi	r18, 0x28	; 40
    26a0:	30 e0       	ldi	r19, 0x00	; 0
    26a2:	46 e2       	ldi	r20, 0x26	; 38
    26a4:	50 e0       	ldi	r21, 0x00	; 0
    26a6:	67 e2       	ldi	r22, 0x27	; 39
    26a8:	70 e0       	ldi	r23, 0x00	; 0
    26aa:	ce 01       	movw	r24, r28
    26ac:	0e 96       	adiw	r24, 0x0e	; 14
    26ae:	0e 94 63 0c 	call	0x18c6	; 0x18c6 <LCD0enable>
    26b2:	88 8d       	ldd	r24, Y+24	; 0x18
    26b4:	99 8d       	ldd	r25, Y+25	; 0x19
    26b6:	c6 55       	subi	r28, 0x56	; 86
    26b8:	df 4f       	sbci	r29, 0xFF	; 255
    26ba:	99 83       	std	Y+1, r25	; 0x01
    26bc:	88 83       	st	Y, r24
    26be:	ca 5a       	subi	r28, 0xAA	; 170
    26c0:	d0 40       	sbci	r29, 0x00	; 0
    26c2:	ea 8c       	ldd	r14, Y+26	; 0x1a
    26c4:	fb 8c       	ldd	r15, Y+27	; 0x1b
    26c6:	6c 8c       	ldd	r6, Y+28	; 0x1c
    26c8:	7d 8c       	ldd	r7, Y+29	; 0x1d
    26ca:	ee 8d       	ldd	r30, Y+30	; 0x1e
    26cc:	ff 8d       	ldd	r31, Y+31	; 0x1f
    26ce:	c1 55       	subi	r28, 0x51	; 81
    26d0:	df 4f       	sbci	r29, 0xFF	; 255
    26d2:	f9 83       	std	Y+1, r31	; 0x01
    26d4:	e8 83       	st	Y, r30
    26d6:	cf 5a       	subi	r28, 0xAF	; 175
    26d8:	d0 40       	sbci	r29, 0x00	; 0
    26da:	c8 a0       	ldd	r12, Y+32	; 0x20
    26dc:	d9 a0       	ldd	r13, Y+33	; 0x21
	EEPROM eeprom = EEPROMenable();
    26de:	ce 01       	movw	r24, r28
    26e0:	84 96       	adiw	r24, 0x24	; 36
    26e2:	0e 94 5c 01 	call	0x2b8	; 0x2b8 <EEPROMenable>
	LFSM lfsm = LFSMenable(&eeprom,146);
    26e6:	42 e9       	ldi	r20, 0x92	; 146
    26e8:	50 e0       	ldi	r21, 0x00	; 0
    26ea:	be 01       	movw	r22, r28
    26ec:	6c 5d       	subi	r22, 0xDC	; 220
    26ee:	7f 4f       	sbci	r23, 0xFF	; 255
    26f0:	ce 01       	movw	r24, r28
    26f2:	8e 5b       	subi	r24, 0xBE	; 190
    26f4:	9f 4f       	sbci	r25, 0xFF	; 255
    26f6:	0e 94 2e 12 	call	0x245c	; 0x245c <LFSMenable>
	FUNC func = FUNCenable();
    26fa:	ce 01       	movw	r24, r28
    26fc:	8e 59       	subi	r24, 0x9E	; 158
    26fe:	9f 4f       	sbci	r25, 0xFF	; 255
    2700:	0e 94 3d 06 	call	0xc7a	; 0xc7a <FUNCenable>
    2704:	e4 96       	adiw	r28, 0x34	; 52
    2706:	ae ac       	ldd	r10, Y+62	; 0x3e
    2708:	bf ac       	ldd	r11, Y+63	; 0x3f
    270a:	e4 97       	sbiw	r28, 0x34	; 52
    270c:	ee 96       	adiw	r28, 0x3e	; 62
    270e:	8e ad       	ldd	r24, Y+62	; 0x3e
    2710:	9f ad       	ldd	r25, Y+63	; 0x3f
    2712:	ee 97       	sbiw	r28, 0x3e	; 62
    2714:	c4 55       	subi	r28, 0x54	; 84
    2716:	df 4f       	sbci	r29, 0xFF	; 255
    2718:	99 83       	std	Y+1, r25	; 0x01
    271a:	88 83       	st	Y, r24
    271c:	cc 5a       	subi	r28, 0xAC	; 172
    271e:	d0 40       	sbci	r29, 0x00	; 0
	/**************************************/
	lfsm.setoutput(&lfsm,255);
    2720:	6e 96       	adiw	r28, 0x1e	; 30
    2722:	ee ad       	ldd	r30, Y+62	; 0x3e
    2724:	ff ad       	ldd	r31, Y+63	; 0x3f
    2726:	6e 97       	sbiw	r28, 0x1e	; 30
    2728:	6f ef       	ldi	r22, 0xFF	; 255
    272a:	70 e0       	ldi	r23, 0x00	; 0
    272c:	ce 01       	movw	r24, r28
    272e:	8e 5b       	subi	r24, 0xBE	; 190
    2730:	9f 4f       	sbci	r25, 0xFF	; 255
    2732:	09 95       	icall
	PORTINIT();
	uint8_t option=0;
	uint8_t input_tmp=0;
	keypadata keypadinput;
	uint8_t output=0;
	uint8_t mask=0;
    2734:	ce 54       	subi	r28, 0x4E	; 78
    2736:	df 4f       	sbci	r29, 0xFF	; 255
    2738:	18 82       	st	Y, r1
    273a:	c2 5b       	subi	r28, 0xB2	; 178
    273c:	d0 40       	sbci	r29, 0x00	; 0
{
	PORTINIT();
	uint8_t option=0;
	uint8_t input_tmp=0;
	keypadata keypadinput;
	uint8_t output=0;
    273e:	cf 54       	subi	r28, 0x4F	; 79
    2740:	df 4f       	sbci	r29, 0xFF	; 255
    2742:	18 82       	st	Y, r1
    2744:	c1 5b       	subi	r28, 0xB1	; 177
    2746:	d0 40       	sbci	r29, 0x00	; 0
void PORTINIT(void);
int main(void)
{
	PORTINIT();
	uint8_t option=0;
	uint8_t input_tmp=0;
    2748:	c2 55       	subi	r28, 0x52	; 82
    274a:	df 4f       	sbci	r29, 0xFF	; 255
    274c:	18 82       	st	Y, r1
    274e:	ce 5a       	subi	r28, 0xAE	; 174
    2750:	d0 40       	sbci	r29, 0x00	; 0
#define True 1
void PORTINIT(void);
int main(void)
{
	PORTINIT();
	uint8_t option=0;
    2752:	21 2c       	mov	r2, r1
	lfsm.setoutput(&lfsm,255);
	/* Replace with your application code */
	while (True)
	{
		/******/
		keypadinput=keypad.data();
    2754:	ea 85       	ldd	r30, Y+10	; 0x0a
    2756:	fb 85       	ldd	r31, Y+11	; 0x0b
    2758:	09 95       	icall
    275a:	32 2e       	mov	r3, r18
    275c:	29 83       	std	Y+1, r18	; 0x01
    275e:	3a 83       	std	Y+2, r19	; 0x02
    2760:	4b 83       	std	Y+3, r20	; 0x03
    2762:	5c 83       	std	Y+4, r21	; 0x04
    2764:	6d 83       	std	Y+5, r22	; 0x05
    2766:	52 2e       	mov	r5, r18
    2768:	0c 81       	ldd	r16, Y+4	; 0x04
    276a:	1d 81       	ldd	r17, Y+5	; 0x05
		n=PIND;
    276c:	49 b0       	in	r4, 0x09	; 9
		/******/
		if(keypadinput.character){
    276e:	22 23       	and	r18, r18
    2770:	51 f0       	breq	.+20     	; 0x2786 <main+0x126>
			lcd.gotoxy(0,8);
    2772:	68 e0       	ldi	r22, 0x08	; 8
    2774:	70 e0       	ldi	r23, 0x00	; 0
    2776:	80 e0       	ldi	r24, 0x00	; 0
    2778:	90 e0       	ldi	r25, 0x00	; 0
    277a:	f6 01       	movw	r30, r12
    277c:	09 95       	icall
			lcd.putch(keypadinput.character);
    277e:	ec 89       	ldd	r30, Y+20	; 0x14
    2780:	fd 89       	ldd	r31, Y+21	; 0x15
    2782:	83 2d       	mov	r24, r3
    2784:	09 95       	icall
		}
		lcd.gotoxy(0,16);
    2786:	60 e1       	ldi	r22, 0x10	; 16
    2788:	70 e0       	ldi	r23, 0x00	; 0
    278a:	80 e0       	ldi	r24, 0x00	; 0
    278c:	90 e0       	ldi	r25, 0x00	; 0
    278e:	f6 01       	movw	r30, r12
    2790:	09 95       	icall
		string = func.ui16toa(n);
    2792:	84 2d       	mov	r24, r4
    2794:	90 e0       	ldi	r25, 0x00	; 0
    2796:	f5 01       	movw	r30, r10
    2798:	09 95       	icall
    279a:	90 93 26 03 	sts	0x0326, r25	; 0x800326 <string+0x1>
    279e:	80 93 25 03 	sts	0x0325, r24	; 0x800325 <string>
		lcd.string_size(string,4);
    27a2:	64 e0       	ldi	r22, 0x04	; 4
    27a4:	f7 01       	movw	r30, r14
    27a6:	09 95       	icall
		/******/
		switch(option){
    27a8:	82 2d       	mov	r24, r2
    27aa:	90 e0       	ldi	r25, 0x00	; 0
    27ac:	8a 30       	cpi	r24, 0x0A	; 10
    27ae:	91 05       	cpc	r25, r1
    27b0:	08 f0       	brcs	.+2      	; 0x27b4 <main+0x154>
    27b2:	0b c3       	rjmp	.+1558   	; 0x2dca <main+0x76a>
    27b4:	fc 01       	movw	r30, r24
    27b6:	e2 5c       	subi	r30, 0xC2	; 194
    27b8:	ff 4f       	sbci	r31, 0xFF	; 255
    27ba:	0c 94 0c 1b 	jmp	0x3618	; 0x3618 <__tablejump2__>
			case 0:
				lcd.gotoxy(0,0);
    27be:	60 e0       	ldi	r22, 0x00	; 0
    27c0:	70 e0       	ldi	r23, 0x00	; 0
    27c2:	80 e0       	ldi	r24, 0x00	; 0
    27c4:	90 e0       	ldi	r25, 0x00	; 0
    27c6:	f6 01       	movw	r30, r12
    27c8:	09 95       	icall
				lcd.string_size("Running ",8);
    27ca:	68 e0       	ldi	r22, 0x08	; 8
    27cc:	80 e1       	ldi	r24, 0x10	; 16
    27ce:	91 e0       	ldi	r25, 0x01	; 1
    27d0:	f7 01       	movw	r30, r14
    27d2:	09 95       	icall
				string = func.ui16toa(lfsm.getpage(&lfsm));
    27d4:	a0 96       	adiw	r28, 0x20	; 32
    27d6:	ee ad       	ldd	r30, Y+62	; 0x3e
    27d8:	ff ad       	ldd	r31, Y+63	; 0x3f
    27da:	a0 97       	sbiw	r28, 0x20	; 32
    27dc:	ce 01       	movw	r24, r28
    27de:	8e 5b       	subi	r24, 0xBE	; 190
    27e0:	9f 4f       	sbci	r25, 0xFF	; 255
    27e2:	09 95       	icall
    27e4:	90 e0       	ldi	r25, 0x00	; 0
    27e6:	f5 01       	movw	r30, r10
    27e8:	09 95       	icall
    27ea:	90 93 26 03 	sts	0x0326, r25	; 0x800326 <string+0x1>
    27ee:	80 93 25 03 	sts	0x0325, r24	; 0x800325 <string>
				lcd.string_size(string,3);
    27f2:	63 e0       	ldi	r22, 0x03	; 3
    27f4:	f7 01       	movw	r30, r14
    27f6:	09 95       	icall
				if(keypadinput.character == 'A'){//Clear screen and empty buffer
    27f8:	f1 e4       	ldi	r31, 0x41	; 65
    27fa:	5f 12       	cpse	r5, r31
    27fc:	0a c0       	rjmp	.+20     	; 0x2812 <main+0x1b2>
					lcd.clear();
    27fe:	c1 55       	subi	r28, 0x51	; 81
    2800:	df 4f       	sbci	r29, 0xFF	; 255
    2802:	e8 81       	ld	r30, Y
    2804:	f9 81       	ldd	r31, Y+1	; 0x01
    2806:	cf 5a       	subi	r28, 0xAF	; 175
    2808:	d0 40       	sbci	r29, 0x00	; 0
    280a:	09 95       	icall
					keypad.flush();
    280c:	f4 01       	movw	r30, r8
    280e:	09 95       	icall
					continue;
    2810:	a1 cf       	rjmp	.-190    	; 0x2754 <main+0xf4>
				}
				if(keypadinput.character == 'B'){//Learn
    2812:	f2 e4       	ldi	r31, 0x42	; 66
    2814:	5f 12       	cpse	r5, r31
    2816:	0c c0       	rjmp	.+24     	; 0x2830 <main+0x1d0>
					lcd.clear();
    2818:	c1 55       	subi	r28, 0x51	; 81
    281a:	df 4f       	sbci	r29, 0xFF	; 255
    281c:	e8 81       	ld	r30, Y
    281e:	f9 81       	ldd	r31, Y+1	; 0x01
    2820:	cf 5a       	subi	r28, 0xAF	; 175
    2822:	d0 40       	sbci	r29, 0x00	; 0
    2824:	09 95       	icall
					keypad.flush();
    2826:	f4 01       	movw	r30, r8
    2828:	09 95       	icall
					option=1;
    282a:	22 24       	eor	r2, r2
    282c:	23 94       	inc	r2
    282e:	10 c0       	rjmp	.+32     	; 0x2850 <main+0x1f0>
				}
				if(keypadinput.character == 'C'){//Delete or remove
    2830:	f3 e4       	ldi	r31, 0x43	; 67
    2832:	5f 12       	cpse	r5, r31
    2834:	0d c0       	rjmp	.+26     	; 0x2850 <main+0x1f0>
					lcd.clear();
    2836:	c1 55       	subi	r28, 0x51	; 81
    2838:	df 4f       	sbci	r29, 0xFF	; 255
    283a:	e8 81       	ld	r30, Y
    283c:	f9 81       	ldd	r31, Y+1	; 0x01
    283e:	cf 5a       	subi	r28, 0xAF	; 175
    2840:	d0 40       	sbci	r29, 0x00	; 0
    2842:	09 95       	icall
					keypad.flush();
    2844:	f4 01       	movw	r30, r8
    2846:	09 95       	icall
					option=6;
    2848:	0f 2e       	mov	r0, r31
    284a:	f6 e0       	ldi	r31, 0x06	; 6
    284c:	2f 2e       	mov	r2, r31
    284e:	f0 2d       	mov	r31, r0
				}
				lfsm.read(&lfsm,n);
    2850:	2e 96       	adiw	r28, 0x0e	; 14
    2852:	ee ad       	ldd	r30, Y+62	; 0x3e
    2854:	ff ad       	ldd	r31, Y+63	; 0x3f
    2856:	2e 97       	sbiw	r28, 0x0e	; 14
    2858:	64 2d       	mov	r22, r4
    285a:	ce 01       	movw	r24, r28
    285c:	8e 5b       	subi	r24, 0xBE	; 190
    285e:	9f 4f       	sbci	r25, 0xFF	; 255
    2860:	09 95       	icall
				break;
    2862:	b3 c2       	rjmp	.+1382   	; 0x2dca <main+0x76a>
			case 1:
				// Menu
				lcd.gotoxy(0,0);
    2864:	60 e0       	ldi	r22, 0x00	; 0
    2866:	70 e0       	ldi	r23, 0x00	; 0
    2868:	80 e0       	ldi	r24, 0x00	; 0
    286a:	90 e0       	ldi	r25, 0x00	; 0
    286c:	f6 01       	movw	r30, r12
    286e:	09 95       	icall
				lcd.string_size("Enter: ",12);
    2870:	6c e0       	ldi	r22, 0x0C	; 12
    2872:	89 e1       	ldi	r24, 0x19	; 25
    2874:	91 e0       	ldi	r25, 0x01	; 1
    2876:	f7 01       	movw	r30, r14
    2878:	09 95       	icall
				lcd.gotoxy(1,0);
    287a:	60 e0       	ldi	r22, 0x00	; 0
    287c:	70 e0       	ldi	r23, 0x00	; 0
    287e:	81 e0       	ldi	r24, 0x01	; 1
    2880:	90 e0       	ldi	r25, 0x00	; 0
    2882:	f6 01       	movw	r30, r12
    2884:	09 95       	icall
				lcd.string_size("In   Out  Mask Page",20);
    2886:	64 e1       	ldi	r22, 0x14	; 20
    2888:	81 e2       	ldi	r24, 0x21	; 33
    288a:	91 e0       	ldi	r25, 0x01	; 1
    288c:	f7 01       	movw	r30, r14
    288e:	09 95       	icall
				option=2;
    2890:	68 94       	set
    2892:	22 24       	eor	r2, r2
    2894:	21 f8       	bld	r2, 1
				break;
    2896:	99 c2       	rjmp	.+1330   	; 0x2dca <main+0x76a>
			case 2:
				lcd.gotoxy(0,7);
    2898:	67 e0       	ldi	r22, 0x07	; 7
    289a:	70 e0       	ldi	r23, 0x00	; 0
    289c:	80 e0       	ldi	r24, 0x00	; 0
    289e:	90 e0       	ldi	r25, 0x00	; 0
    28a0:	f6 01       	movw	r30, r12
    28a2:	09 95       	icall
				lcd.string_size(keypadinput.string,4);
    28a4:	64 e0       	ldi	r22, 0x04	; 4
    28a6:	c8 01       	movw	r24, r16
    28a8:	f7 01       	movw	r30, r14
    28aa:	09 95       	icall
				if(keypadinput.character == 'D'){
    28ac:	f4 e4       	ldi	r31, 0x44	; 68
    28ae:	5f 12       	cpse	r5, r31
    28b0:	2a c0       	rjmp	.+84     	; 0x2906 <main+0x2a6>
					input_tmp=func.strToInt(keypadinput.string);
    28b2:	c8 01       	movw	r24, r16
    28b4:	c4 55       	subi	r28, 0x54	; 84
    28b6:	df 4f       	sbci	r29, 0xFF	; 255
    28b8:	e8 81       	ld	r30, Y
    28ba:	f9 81       	ldd	r31, Y+1	; 0x01
    28bc:	cc 5a       	subi	r28, 0xAC	; 172
    28be:	d0 40       	sbci	r29, 0x00	; 0
    28c0:	09 95       	icall
    28c2:	8c 01       	movw	r16, r24
    28c4:	c2 55       	subi	r28, 0x52	; 82
    28c6:	df 4f       	sbci	r29, 0xFF	; 255
    28c8:	88 83       	st	Y, r24
    28ca:	ce 5a       	subi	r28, 0xAE	; 174
    28cc:	d0 40       	sbci	r29, 0x00	; 0
					lcd.gotoxy(2,0);
    28ce:	60 e0       	ldi	r22, 0x00	; 0
    28d0:	70 e0       	ldi	r23, 0x00	; 0
    28d2:	82 e0       	ldi	r24, 0x02	; 2
    28d4:	90 e0       	ldi	r25, 0x00	; 0
    28d6:	f6 01       	movw	r30, r12
    28d8:	09 95       	icall
					string = func.ui16toa(input_tmp);
    28da:	c8 01       	movw	r24, r16
    28dc:	99 27       	eor	r25, r25
    28de:	f5 01       	movw	r30, r10
    28e0:	09 95       	icall
    28e2:	90 93 26 03 	sts	0x0326, r25	; 0x800326 <string+0x1>
    28e6:	80 93 25 03 	sts	0x0325, r24	; 0x800325 <string>
					lcd.string(string);
    28ea:	c6 55       	subi	r28, 0x56	; 86
    28ec:	df 4f       	sbci	r29, 0xFF	; 255
    28ee:	e8 81       	ld	r30, Y
    28f0:	f9 81       	ldd	r31, Y+1	; 0x01
    28f2:	ca 5a       	subi	r28, 0xAA	; 170
    28f4:	d0 40       	sbci	r29, 0x00	; 0
    28f6:	09 95       	icall
					keypad.flush();
    28f8:	f4 01       	movw	r30, r8
    28fa:	09 95       	icall
					option=3;
    28fc:	0f 2e       	mov	r0, r31
    28fe:	f3 e0       	ldi	r31, 0x03	; 3
    2900:	2f 2e       	mov	r2, r31
    2902:	f0 2d       	mov	r31, r0
    2904:	62 c2       	rjmp	.+1220   	; 0x2dca <main+0x76a>
				}
				if(keypadinput.character == 'C'){
    2906:	f3 e4       	ldi	r31, 0x43	; 67
    2908:	5f 12       	cpse	r5, r31
    290a:	5f c2       	rjmp	.+1214   	; 0x2dca <main+0x76a>
					keypad.flush();
    290c:	f4 01       	movw	r30, r8
    290e:	09 95       	icall
    2910:	5c c2       	rjmp	.+1208   	; 0x2dca <main+0x76a>
					option=2;
				}
				break;
			case 3:
				lcd.gotoxy(0,7);
    2912:	67 e0       	ldi	r22, 0x07	; 7
    2914:	70 e0       	ldi	r23, 0x00	; 0
    2916:	80 e0       	ldi	r24, 0x00	; 0
    2918:	90 e0       	ldi	r25, 0x00	; 0
    291a:	f6 01       	movw	r30, r12
    291c:	09 95       	icall
				lcd.string_size(keypadinput.string,4);
    291e:	64 e0       	ldi	r22, 0x04	; 4
    2920:	c8 01       	movw	r24, r16
    2922:	f7 01       	movw	r30, r14
    2924:	09 95       	icall
				if(keypadinput.character == 'D'){
    2926:	f4 e4       	ldi	r31, 0x44	; 68
    2928:	5f 12       	cpse	r5, r31
    292a:	29 c0       	rjmp	.+82     	; 0x297e <main+0x31e>
					output=func.strToInt(keypadinput.string);
    292c:	c8 01       	movw	r24, r16
    292e:	c4 55       	subi	r28, 0x54	; 84
    2930:	df 4f       	sbci	r29, 0xFF	; 255
    2932:	e8 81       	ld	r30, Y
    2934:	f9 81       	ldd	r31, Y+1	; 0x01
    2936:	cc 5a       	subi	r28, 0xAC	; 172
    2938:	d0 40       	sbci	r29, 0x00	; 0
    293a:	09 95       	icall
    293c:	8c 01       	movw	r16, r24
    293e:	cf 54       	subi	r28, 0x4F	; 79
    2940:	df 4f       	sbci	r29, 0xFF	; 255
    2942:	88 83       	st	Y, r24
    2944:	c1 5b       	subi	r28, 0xB1	; 177
    2946:	d0 40       	sbci	r29, 0x00	; 0
					lcd.gotoxy(2,5);
    2948:	65 e0       	ldi	r22, 0x05	; 5
    294a:	70 e0       	ldi	r23, 0x00	; 0
    294c:	82 e0       	ldi	r24, 0x02	; 2
    294e:	90 e0       	ldi	r25, 0x00	; 0
    2950:	f6 01       	movw	r30, r12
    2952:	09 95       	icall
					string = func.ui16toa(output);
    2954:	c8 01       	movw	r24, r16
    2956:	99 27       	eor	r25, r25
    2958:	f5 01       	movw	r30, r10
    295a:	09 95       	icall
    295c:	90 93 26 03 	sts	0x0326, r25	; 0x800326 <string+0x1>
    2960:	80 93 25 03 	sts	0x0325, r24	; 0x800325 <string>
					lcd.string(string);
    2964:	c6 55       	subi	r28, 0x56	; 86
    2966:	df 4f       	sbci	r29, 0xFF	; 255
    2968:	e8 81       	ld	r30, Y
    296a:	f9 81       	ldd	r31, Y+1	; 0x01
    296c:	ca 5a       	subi	r28, 0xAA	; 170
    296e:	d0 40       	sbci	r29, 0x00	; 0
    2970:	09 95       	icall
					keypad.flush();
    2972:	f4 01       	movw	r30, r8
    2974:	09 95       	icall
					option=4;
    2976:	68 94       	set
    2978:	22 24       	eor	r2, r2
    297a:	22 f8       	bld	r2, 2
    297c:	26 c2       	rjmp	.+1100   	; 0x2dca <main+0x76a>
				}
				if(keypadinput.character == 'C'){
    297e:	f3 e4       	ldi	r31, 0x43	; 67
    2980:	5f 12       	cpse	r5, r31
    2982:	23 c2       	rjmp	.+1094   	; 0x2dca <main+0x76a>
					keypad.flush();
    2984:	f4 01       	movw	r30, r8
    2986:	09 95       	icall
    2988:	20 c2       	rjmp	.+1088   	; 0x2dca <main+0x76a>
					option=3;
				}
				break;
			case 4:
				lcd.gotoxy(0,7);
    298a:	67 e0       	ldi	r22, 0x07	; 7
    298c:	70 e0       	ldi	r23, 0x00	; 0
    298e:	80 e0       	ldi	r24, 0x00	; 0
    2990:	90 e0       	ldi	r25, 0x00	; 0
    2992:	f6 01       	movw	r30, r12
    2994:	09 95       	icall
				lcd.string_size(keypadinput.string,4);
    2996:	64 e0       	ldi	r22, 0x04	; 4
    2998:	c8 01       	movw	r24, r16
    299a:	f7 01       	movw	r30, r14
    299c:	09 95       	icall
				if(keypadinput.character == 'D'){
    299e:	f4 e4       	ldi	r31, 0x44	; 68
    29a0:	5f 12       	cpse	r5, r31
    29a2:	2a c0       	rjmp	.+84     	; 0x29f8 <main+0x398>
					mask=func.strToInt(keypadinput.string);
    29a4:	c8 01       	movw	r24, r16
    29a6:	c4 55       	subi	r28, 0x54	; 84
    29a8:	df 4f       	sbci	r29, 0xFF	; 255
    29aa:	e8 81       	ld	r30, Y
    29ac:	f9 81       	ldd	r31, Y+1	; 0x01
    29ae:	cc 5a       	subi	r28, 0xAC	; 172
    29b0:	d0 40       	sbci	r29, 0x00	; 0
    29b2:	09 95       	icall
    29b4:	8c 01       	movw	r16, r24
    29b6:	ce 54       	subi	r28, 0x4E	; 78
    29b8:	df 4f       	sbci	r29, 0xFF	; 255
    29ba:	88 83       	st	Y, r24
    29bc:	c2 5b       	subi	r28, 0xB2	; 178
    29be:	d0 40       	sbci	r29, 0x00	; 0
					lcd.gotoxy(2,10);
    29c0:	6a e0       	ldi	r22, 0x0A	; 10
    29c2:	70 e0       	ldi	r23, 0x00	; 0
    29c4:	82 e0       	ldi	r24, 0x02	; 2
    29c6:	90 e0       	ldi	r25, 0x00	; 0
    29c8:	f6 01       	movw	r30, r12
    29ca:	09 95       	icall
					string = func.ui16toa(mask);
    29cc:	c8 01       	movw	r24, r16
    29ce:	99 27       	eor	r25, r25
    29d0:	f5 01       	movw	r30, r10
    29d2:	09 95       	icall
    29d4:	90 93 26 03 	sts	0x0326, r25	; 0x800326 <string+0x1>
    29d8:	80 93 25 03 	sts	0x0325, r24	; 0x800325 <string>
					lcd.string(string);
    29dc:	c6 55       	subi	r28, 0x56	; 86
    29de:	df 4f       	sbci	r29, 0xFF	; 255
    29e0:	e8 81       	ld	r30, Y
    29e2:	f9 81       	ldd	r31, Y+1	; 0x01
    29e4:	ca 5a       	subi	r28, 0xAA	; 170
    29e6:	d0 40       	sbci	r29, 0x00	; 0
    29e8:	09 95       	icall
					keypad.flush();
    29ea:	f4 01       	movw	r30, r8
    29ec:	09 95       	icall
					option=5;
    29ee:	0f 2e       	mov	r0, r31
    29f0:	f5 e0       	ldi	r31, 0x05	; 5
    29f2:	2f 2e       	mov	r2, r31
    29f4:	f0 2d       	mov	r31, r0
    29f6:	e9 c1       	rjmp	.+978    	; 0x2dca <main+0x76a>
				}
				if(keypadinput.character == 'C'){
    29f8:	f3 e4       	ldi	r31, 0x43	; 67
    29fa:	5f 12       	cpse	r5, r31
    29fc:	e6 c1       	rjmp	.+972    	; 0x2dca <main+0x76a>
					keypad.flush();
    29fe:	f4 01       	movw	r30, r8
    2a00:	09 95       	icall
    2a02:	e3 c1       	rjmp	.+966    	; 0x2dca <main+0x76a>
					option=4;
				}
				break;
			case 5:
				lcd.gotoxy(0,7);
    2a04:	67 e0       	ldi	r22, 0x07	; 7
    2a06:	70 e0       	ldi	r23, 0x00	; 0
    2a08:	80 e0       	ldi	r24, 0x00	; 0
    2a0a:	90 e0       	ldi	r25, 0x00	; 0
    2a0c:	f6 01       	movw	r30, r12
    2a0e:	09 95       	icall
				lcd.string_size(keypadinput.string,4);
    2a10:	64 e0       	ldi	r22, 0x04	; 4
    2a12:	c8 01       	movw	r24, r16
    2a14:	f7 01       	movw	r30, r14
    2a16:	09 95       	icall
				if(keypadinput.character == 'D'){
    2a18:	f4 e4       	ldi	r31, 0x44	; 68
    2a1a:	5f 12       	cpse	r5, r31
    2a1c:	85 c0       	rjmp	.+266    	; 0x2b28 <main+0x4c8>
					page=func.strToInt(keypadinput.string);
    2a1e:	c8 01       	movw	r24, r16
    2a20:	c4 55       	subi	r28, 0x54	; 84
    2a22:	df 4f       	sbci	r29, 0xFF	; 255
    2a24:	e8 81       	ld	r30, Y
    2a26:	f9 81       	ldd	r31, Y+1	; 0x01
    2a28:	cc 5a       	subi	r28, 0xAC	; 172
    2a2a:	d0 40       	sbci	r29, 0x00	; 0
    2a2c:	09 95       	icall
    2a2e:	8c 01       	movw	r16, r24
					lcd.gotoxy(2,15);
    2a30:	6f e0       	ldi	r22, 0x0F	; 15
    2a32:	70 e0       	ldi	r23, 0x00	; 0
    2a34:	82 e0       	ldi	r24, 0x02	; 2
    2a36:	90 e0       	ldi	r25, 0x00	; 0
    2a38:	f6 01       	movw	r30, r12
    2a3a:	09 95       	icall
					string = func.ui16toa(page);
    2a3c:	c8 01       	movw	r24, r16
    2a3e:	99 27       	eor	r25, r25
    2a40:	f5 01       	movw	r30, r10
    2a42:	09 95       	icall
    2a44:	90 93 26 03 	sts	0x0326, r25	; 0x800326 <string+0x1>
    2a48:	80 93 25 03 	sts	0x0325, r24	; 0x800325 <string>
					lcd.string(string);
    2a4c:	c6 55       	subi	r28, 0x56	; 86
    2a4e:	df 4f       	sbci	r29, 0xFF	; 255
    2a50:	e8 81       	ld	r30, Y
    2a52:	f9 81       	ldd	r31, Y+1	; 0x01
    2a54:	ca 5a       	subi	r28, 0xAA	; 170
    2a56:	d0 40       	sbci	r29, 0x00	; 0
    2a58:	09 95       	icall
					switch(lfsm.learn(&lfsm,input_tmp,output,mask,page)){
    2a5a:	ce 54       	subi	r28, 0x4E	; 78
    2a5c:	df 4f       	sbci	r29, 0xFF	; 255
    2a5e:	f8 81       	ld	r31, Y
    2a60:	c2 5b       	subi	r28, 0xB2	; 178
    2a62:	d0 40       	sbci	r29, 0x00	; 0
    2a64:	2f 2f       	mov	r18, r31
    2a66:	30 e0       	ldi	r19, 0x00	; 0
    2a68:	cf 54       	subi	r28, 0x4F	; 79
    2a6a:	df 4f       	sbci	r29, 0xFF	; 255
    2a6c:	88 81       	ld	r24, Y
    2a6e:	c1 5b       	subi	r28, 0xB1	; 177
    2a70:	d0 40       	sbci	r29, 0x00	; 0
    2a72:	48 2f       	mov	r20, r24
    2a74:	50 e0       	ldi	r21, 0x00	; 0
    2a76:	60 96       	adiw	r28, 0x10	; 16
    2a78:	ee ad       	ldd	r30, Y+62	; 0x3e
    2a7a:	ff ad       	ldd	r31, Y+63	; 0x3f
    2a7c:	60 97       	sbiw	r28, 0x10	; 16
    2a7e:	c2 55       	subi	r28, 0x52	; 82
    2a80:	df 4f       	sbci	r29, 0xFF	; 255
    2a82:	68 81       	ld	r22, Y
    2a84:	ce 5a       	subi	r28, 0xAE	; 174
    2a86:	d0 40       	sbci	r29, 0x00	; 0
    2a88:	ce 01       	movw	r24, r28
    2a8a:	8e 5b       	subi	r24, 0xBE	; 190
    2a8c:	9f 4f       	sbci	r25, 0xFF	; 255
    2a8e:	09 95       	icall
    2a90:	82 30       	cpi	r24, 0x02	; 2
    2a92:	19 f1       	breq	.+70     	; 0x2ada <main+0x47a>
    2a94:	28 f4       	brcc	.+10     	; 0x2aa0 <main+0x440>
    2a96:	88 23       	and	r24, r24
    2a98:	41 f0       	breq	.+16     	; 0x2aaa <main+0x44a>
    2a9a:	81 30       	cpi	r24, 0x01	; 1
    2a9c:	91 f0       	breq	.+36     	; 0x2ac2 <main+0x462>
    2a9e:	40 c0       	rjmp	.+128    	; 0x2b20 <main+0x4c0>
    2aa0:	83 30       	cpi	r24, 0x03	; 3
    2aa2:	39 f1       	breq	.+78     	; 0x2af2 <main+0x492>
    2aa4:	84 30       	cpi	r24, 0x04	; 4
    2aa6:	89 f1       	breq	.+98     	; 0x2b0a <main+0x4aa>
    2aa8:	3b c0       	rjmp	.+118    	; 0x2b20 <main+0x4c0>
						case 0:
							lcd.gotoxy(3,12);
    2aaa:	6c e0       	ldi	r22, 0x0C	; 12
    2aac:	70 e0       	ldi	r23, 0x00	; 0
    2aae:	83 e0       	ldi	r24, 0x03	; 3
    2ab0:	90 e0       	ldi	r25, 0x00	; 0
    2ab2:	f6 01       	movw	r30, r12
    2ab4:	09 95       	icall
							lcd.string_size("disabled",7);
    2ab6:	67 e0       	ldi	r22, 0x07	; 7
    2ab8:	85 e3       	ldi	r24, 0x35	; 53
    2aba:	91 e0       	ldi	r25, 0x01	; 1
    2abc:	f7 01       	movw	r30, r14
    2abe:	09 95       	icall
							break;
    2ac0:	2f c0       	rjmp	.+94     	; 0x2b20 <main+0x4c0>
						case 1:
							lcd.gotoxy(3,12);
    2ac2:	6c e0       	ldi	r22, 0x0C	; 12
    2ac4:	70 e0       	ldi	r23, 0x00	; 0
    2ac6:	83 e0       	ldi	r24, 0x03	; 3
    2ac8:	90 e0       	ldi	r25, 0x00	; 0
    2aca:	f6 01       	movw	r30, r12
    2acc:	09 95       	icall
							lcd.string_size("exists",7);
    2ace:	67 e0       	ldi	r22, 0x07	; 7
    2ad0:	8e e3       	ldi	r24, 0x3E	; 62
    2ad2:	91 e0       	ldi	r25, 0x01	; 1
    2ad4:	f7 01       	movw	r30, r14
    2ad6:	09 95       	icall
							break;
    2ad8:	23 c0       	rjmp	.+70     	; 0x2b20 <main+0x4c0>
						case 2:
							lcd.gotoxy(3,12);
    2ada:	6c e0       	ldi	r22, 0x0C	; 12
    2adc:	70 e0       	ldi	r23, 0x00	; 0
    2ade:	83 e0       	ldi	r24, 0x03	; 3
    2ae0:	90 e0       	ldi	r25, 0x00	; 0
    2ae2:	f6 01       	movw	r30, r12
    2ae4:	09 95       	icall
							lcd.string_size("upload",7);
    2ae6:	67 e0       	ldi	r22, 0x07	; 7
    2ae8:	85 e4       	ldi	r24, 0x45	; 69
    2aea:	91 e0       	ldi	r25, 0x01	; 1
    2aec:	f7 01       	movw	r30, r14
    2aee:	09 95       	icall
							break;
    2af0:	17 c0       	rjmp	.+46     	; 0x2b20 <main+0x4c0>
						case 3:
							lcd.gotoxy(3,12);
    2af2:	6c e0       	ldi	r22, 0x0C	; 12
    2af4:	70 e0       	ldi	r23, 0x00	; 0
    2af6:	83 e0       	ldi	r24, 0x03	; 3
    2af8:	90 e0       	ldi	r25, 0x00	; 0
    2afa:	f6 01       	movw	r30, r12
    2afc:	09 95       	icall
							lcd.string_size("upload",7);
    2afe:	67 e0       	ldi	r22, 0x07	; 7
    2b00:	85 e4       	ldi	r24, 0x45	; 69
    2b02:	91 e0       	ldi	r25, 0x01	; 1
    2b04:	f7 01       	movw	r30, r14
    2b06:	09 95       	icall
							break;
    2b08:	0b c0       	rjmp	.+22     	; 0x2b20 <main+0x4c0>
						case 4:
							lcd.gotoxy(3,12);
    2b0a:	6c e0       	ldi	r22, 0x0C	; 12
    2b0c:	70 e0       	ldi	r23, 0x00	; 0
    2b0e:	83 e0       	ldi	r24, 0x03	; 3
    2b10:	90 e0       	ldi	r25, 0x00	; 0
    2b12:	f6 01       	movw	r30, r12
    2b14:	09 95       	icall
							lcd.string_size("full",7);
    2b16:	67 e0       	ldi	r22, 0x07	; 7
    2b18:	8c e4       	ldi	r24, 0x4C	; 76
    2b1a:	91 e0       	ldi	r25, 0x01	; 1
    2b1c:	f7 01       	movw	r30, r14
    2b1e:	09 95       	icall
							break;
					}//End switch
				/******/
				//lfsm.read(&lfsm,input_tmp);
				
				keypad.flush();
    2b20:	f4 01       	movw	r30, r8
    2b22:	09 95       	icall
				option=0;
    2b24:	21 2c       	mov	r2, r1
    2b26:	51 c1       	rjmp	.+674    	; 0x2dca <main+0x76a>
				}//End if
				if(keypadinput.character == 'C'){
    2b28:	f3 e4       	ldi	r31, 0x43	; 67
    2b2a:	5f 12       	cpse	r5, r31
    2b2c:	4e c1       	rjmp	.+668    	; 0x2dca <main+0x76a>
					keypad.flush();
    2b2e:	f4 01       	movw	r30, r8
    2b30:	09 95       	icall
    2b32:	4b c1       	rjmp	.+662    	; 0x2dca <main+0x76a>
					option=5;
				}
				break;
			case 6:
				lcd.gotoxy(1,0);
    2b34:	60 e0       	ldi	r22, 0x00	; 0
    2b36:	70 e0       	ldi	r23, 0x00	; 0
    2b38:	81 e0       	ldi	r24, 0x01	; 1
    2b3a:	90 e0       	ldi	r25, 0x00	; 0
    2b3c:	f6 01       	movw	r30, r12
    2b3e:	09 95       	icall
				lcd.string_size("Delete - 1",10);
    2b40:	6a e0       	ldi	r22, 0x0A	; 10
    2b42:	81 e5       	ldi	r24, 0x51	; 81
    2b44:	91 e0       	ldi	r25, 0x01	; 1
    2b46:	f7 01       	movw	r30, r14
    2b48:	09 95       	icall
				lcd.gotoxy(2,0);
    2b4a:	60 e0       	ldi	r22, 0x00	; 0
    2b4c:	70 e0       	ldi	r23, 0x00	; 0
    2b4e:	82 e0       	ldi	r24, 0x02	; 2
    2b50:	90 e0       	ldi	r25, 0x00	; 0
    2b52:	f6 01       	movw	r30, r12
    2b54:	09 95       	icall
				lcd.string_size("Remove - 2 No - 3",17);
    2b56:	61 e1       	ldi	r22, 0x11	; 17
    2b58:	8c e5       	ldi	r24, 0x5C	; 92
    2b5a:	91 e0       	ldi	r25, 0x01	; 1
    2b5c:	f7 01       	movw	r30, r14
    2b5e:	09 95       	icall
				option=7;
    2b60:	0f 2e       	mov	r0, r31
    2b62:	f7 e0       	ldi	r31, 0x07	; 7
    2b64:	2f 2e       	mov	r2, r31
    2b66:	f0 2d       	mov	r31, r0
				break;
    2b68:	30 c1       	rjmp	.+608    	; 0x2dca <main+0x76a>
			case 7:
				if(keypadinput.character == '1'){//Clear eeprom
    2b6a:	f1 e3       	ldi	r31, 0x31	; 49
    2b6c:	5f 12       	cpse	r5, r31
    2b6e:	3c c0       	rjmp	.+120    	; 0x2be8 <main+0x588>
					lcd.gotoxy(1,0);
    2b70:	60 e0       	ldi	r22, 0x00	; 0
    2b72:	70 e0       	ldi	r23, 0x00	; 0
    2b74:	81 e0       	ldi	r24, 0x01	; 1
    2b76:	90 e0       	ldi	r25, 0x00	; 0
    2b78:	f6 01       	movw	r30, r12
    2b7a:	09 95       	icall
					lcd.hspace(10);
    2b7c:	8a e0       	ldi	r24, 0x0A	; 10
    2b7e:	f3 01       	movw	r30, r6
    2b80:	09 95       	icall
					lcd.gotoxy(2,0);
    2b82:	60 e0       	ldi	r22, 0x00	; 0
    2b84:	70 e0       	ldi	r23, 0x00	; 0
    2b86:	82 e0       	ldi	r24, 0x02	; 2
    2b88:	90 e0       	ldi	r25, 0x00	; 0
    2b8a:	f6 01       	movw	r30, r12
    2b8c:	09 95       	icall
					lcd.hspace(17);
    2b8e:	81 e1       	ldi	r24, 0x11	; 17
    2b90:	f3 01       	movw	r30, r6
    2b92:	09 95       	icall
					lfsm.deleteall(&lfsm);
    2b94:	68 96       	adiw	r28, 0x18	; 24
    2b96:	ee ad       	ldd	r30, Y+62	; 0x3e
    2b98:	ff ad       	ldd	r31, Y+63	; 0x3f
    2b9a:	68 97       	sbiw	r28, 0x18	; 24
    2b9c:	ce 01       	movw	r24, r28
    2b9e:	8e 5b       	subi	r24, 0xBE	; 190
    2ba0:	9f 4f       	sbci	r25, 0xFF	; 255
    2ba2:	09 95       	icall
					lfsm.setpage(&lfsm,0);
    2ba4:	a2 96       	adiw	r28, 0x22	; 34
    2ba6:	ee ad       	ldd	r30, Y+62	; 0x3e
    2ba8:	ff ad       	ldd	r31, Y+63	; 0x3f
    2baa:	a2 97       	sbiw	r28, 0x22	; 34
    2bac:	60 e0       	ldi	r22, 0x00	; 0
    2bae:	ce 01       	movw	r24, r28
    2bb0:	8e 5b       	subi	r24, 0xBE	; 190
    2bb2:	9f 4f       	sbci	r25, 0xFF	; 255
    2bb4:	09 95       	icall
					lfsm.setoutput(&lfsm,0XFF);
    2bb6:	6e 96       	adiw	r28, 0x1e	; 30
    2bb8:	ee ad       	ldd	r30, Y+62	; 0x3e
    2bba:	ff ad       	ldd	r31, Y+63	; 0x3f
    2bbc:	6e 97       	sbiw	r28, 0x1e	; 30
    2bbe:	6f ef       	ldi	r22, 0xFF	; 255
    2bc0:	70 e0       	ldi	r23, 0x00	; 0
    2bc2:	ce 01       	movw	r24, r28
    2bc4:	8e 5b       	subi	r24, 0xBE	; 190
    2bc6:	9f 4f       	sbci	r25, 0xFF	; 255
    2bc8:	09 95       	icall
					keypad.flush();
    2bca:	f4 01       	movw	r30, r8
    2bcc:	09 95       	icall
					lcd.gotoxy(3,12);
    2bce:	6c e0       	ldi	r22, 0x0C	; 12
    2bd0:	70 e0       	ldi	r23, 0x00	; 0
    2bd2:	83 e0       	ldi	r24, 0x03	; 3
    2bd4:	90 e0       	ldi	r25, 0x00	; 0
    2bd6:	f6 01       	movw	r30, r12
    2bd8:	09 95       	icall
					lcd.string_size("deleted",7);
    2bda:	67 e0       	ldi	r22, 0x07	; 7
    2bdc:	8e e6       	ldi	r24, 0x6E	; 110
    2bde:	91 e0       	ldi	r25, 0x01	; 1
    2be0:	f7 01       	movw	r30, r14
    2be2:	09 95       	icall
					option=0;
    2be4:	21 2c       	mov	r2, r1
    2be6:	f1 c0       	rjmp	.+482    	; 0x2dca <main+0x76a>
				}else if(keypadinput.character == '2'){//Remove one entry
    2be8:	f2 e3       	ldi	r31, 0x32	; 50
    2bea:	5f 12       	cpse	r5, r31
    2bec:	18 c0       	rjmp	.+48     	; 0x2c1e <main+0x5be>
					lcd.gotoxy(1,0);
    2bee:	60 e0       	ldi	r22, 0x00	; 0
    2bf0:	70 e0       	ldi	r23, 0x00	; 0
    2bf2:	81 e0       	ldi	r24, 0x01	; 1
    2bf4:	90 e0       	ldi	r25, 0x00	; 0
    2bf6:	f6 01       	movw	r30, r12
    2bf8:	09 95       	icall
					lcd.hspace(10);
    2bfa:	8a e0       	ldi	r24, 0x0A	; 10
    2bfc:	f3 01       	movw	r30, r6
    2bfe:	09 95       	icall
					lcd.gotoxy(2,0);
    2c00:	60 e0       	ldi	r22, 0x00	; 0
    2c02:	70 e0       	ldi	r23, 0x00	; 0
    2c04:	82 e0       	ldi	r24, 0x02	; 2
    2c06:	90 e0       	ldi	r25, 0x00	; 0
    2c08:	f6 01       	movw	r30, r12
    2c0a:	09 95       	icall
					lcd.hspace(17);
    2c0c:	81 e1       	ldi	r24, 0x11	; 17
    2c0e:	f3 01       	movw	r30, r6
    2c10:	09 95       	icall
					keypad.flush();
    2c12:	f4 01       	movw	r30, r8
    2c14:	09 95       	icall
					option=8;
    2c16:	68 94       	set
    2c18:	22 24       	eor	r2, r2
    2c1a:	23 f8       	bld	r2, 3
    2c1c:	d6 c0       	rjmp	.+428    	; 0x2dca <main+0x76a>
				}else if(keypadinput.character == '3'){//Exit
    2c1e:	f3 e3       	ldi	r31, 0x33	; 51
    2c20:	5f 12       	cpse	r5, r31
    2c22:	d3 c0       	rjmp	.+422    	; 0x2dca <main+0x76a>
					lcd.gotoxy(1,0);
    2c24:	60 e0       	ldi	r22, 0x00	; 0
    2c26:	70 e0       	ldi	r23, 0x00	; 0
    2c28:	81 e0       	ldi	r24, 0x01	; 1
    2c2a:	90 e0       	ldi	r25, 0x00	; 0
    2c2c:	f6 01       	movw	r30, r12
    2c2e:	09 95       	icall
					lcd.hspace(10);
    2c30:	8a e0       	ldi	r24, 0x0A	; 10
    2c32:	f3 01       	movw	r30, r6
    2c34:	09 95       	icall
					lcd.gotoxy(2,0);
    2c36:	60 e0       	ldi	r22, 0x00	; 0
    2c38:	70 e0       	ldi	r23, 0x00	; 0
    2c3a:	82 e0       	ldi	r24, 0x02	; 2
    2c3c:	90 e0       	ldi	r25, 0x00	; 0
    2c3e:	f6 01       	movw	r30, r12
    2c40:	09 95       	icall
					lcd.hspace(17);
    2c42:	81 e1       	ldi	r24, 0x11	; 17
    2c44:	f3 01       	movw	r30, r6
    2c46:	09 95       	icall
					keypad.flush();
    2c48:	f4 01       	movw	r30, r8
    2c4a:	09 95       	icall
					option=0;
    2c4c:	21 2c       	mov	r2, r1
    2c4e:	bd c0       	rjmp	.+378    	; 0x2dca <main+0x76a>
				}
				break;
			case 8:
				lcd.gotoxy(0,0);
    2c50:	60 e0       	ldi	r22, 0x00	; 0
    2c52:	70 e0       	ldi	r23, 0x00	; 0
    2c54:	80 e0       	ldi	r24, 0x00	; 0
    2c56:	90 e0       	ldi	r25, 0x00	; 0
    2c58:	f6 01       	movw	r30, r12
    2c5a:	09 95       	icall
				lcd.string_size("Enter: ",12);
    2c5c:	6c e0       	ldi	r22, 0x0C	; 12
    2c5e:	89 e1       	ldi	r24, 0x19	; 25
    2c60:	91 e0       	ldi	r25, 0x01	; 1
    2c62:	f7 01       	movw	r30, r14
    2c64:	09 95       	icall
				lcd.gotoxy(1,0);
    2c66:	60 e0       	ldi	r22, 0x00	; 0
    2c68:	70 e0       	ldi	r23, 0x00	; 0
    2c6a:	81 e0       	ldi	r24, 0x01	; 1
    2c6c:	90 e0       	ldi	r25, 0x00	; 0
    2c6e:	f6 01       	movw	r30, r12
    2c70:	09 95       	icall
				lcd.string_size("Input",20);
    2c72:	64 e1       	ldi	r22, 0x14	; 20
    2c74:	86 e7       	ldi	r24, 0x76	; 118
    2c76:	91 e0       	ldi	r25, 0x01	; 1
    2c78:	f7 01       	movw	r30, r14
    2c7a:	09 95       	icall
				option=9;
    2c7c:	0f 2e       	mov	r0, r31
    2c7e:	f9 e0       	ldi	r31, 0x09	; 9
    2c80:	2f 2e       	mov	r2, r31
    2c82:	f0 2d       	mov	r31, r0
				break;
    2c84:	a2 c0       	rjmp	.+324    	; 0x2dca <main+0x76a>
			case 9:
				lcd.gotoxy(0,7);
    2c86:	67 e0       	ldi	r22, 0x07	; 7
    2c88:	70 e0       	ldi	r23, 0x00	; 0
    2c8a:	80 e0       	ldi	r24, 0x00	; 0
    2c8c:	90 e0       	ldi	r25, 0x00	; 0
    2c8e:	f6 01       	movw	r30, r12
    2c90:	09 95       	icall
				lcd.string_size(keypadinput.string,4);
    2c92:	64 e0       	ldi	r22, 0x04	; 4
    2c94:	c8 01       	movw	r24, r16
    2c96:	f7 01       	movw	r30, r14
    2c98:	09 95       	icall
				if(keypadinput.character == 'D'){
    2c9a:	f4 e4       	ldi	r31, 0x44	; 68
    2c9c:	5f 12       	cpse	r5, r31
    2c9e:	8d c0       	rjmp	.+282    	; 0x2dba <main+0x75a>
					input_tmp=func.strToInt(keypadinput.string);
    2ca0:	c8 01       	movw	r24, r16
    2ca2:	c4 55       	subi	r28, 0x54	; 84
    2ca4:	df 4f       	sbci	r29, 0xFF	; 255
    2ca6:	e8 81       	ld	r30, Y
    2ca8:	f9 81       	ldd	r31, Y+1	; 0x01
    2caa:	cc 5a       	subi	r28, 0xAC	; 172
    2cac:	d0 40       	sbci	r29, 0x00	; 0
    2cae:	09 95       	icall
    2cb0:	8c 01       	movw	r16, r24
    2cb2:	c2 55       	subi	r28, 0x52	; 82
    2cb4:	df 4f       	sbci	r29, 0xFF	; 255
    2cb6:	88 83       	st	Y, r24
    2cb8:	ce 5a       	subi	r28, 0xAE	; 174
    2cba:	d0 40       	sbci	r29, 0x00	; 0
					lcd.gotoxy(2,0);
    2cbc:	60 e0       	ldi	r22, 0x00	; 0
    2cbe:	70 e0       	ldi	r23, 0x00	; 0
    2cc0:	82 e0       	ldi	r24, 0x02	; 2
    2cc2:	90 e0       	ldi	r25, 0x00	; 0
    2cc4:	f6 01       	movw	r30, r12
    2cc6:	09 95       	icall
					string = func.ui16toa(input_tmp);
    2cc8:	c8 01       	movw	r24, r16
    2cca:	99 27       	eor	r25, r25
    2ccc:	f5 01       	movw	r30, r10
    2cce:	09 95       	icall
    2cd0:	90 93 26 03 	sts	0x0326, r25	; 0x800326 <string+0x1>
    2cd4:	80 93 25 03 	sts	0x0325, r24	; 0x800325 <string>
					lcd.string(string);
    2cd8:	c6 55       	subi	r28, 0x56	; 86
    2cda:	df 4f       	sbci	r29, 0xFF	; 255
    2cdc:	e8 81       	ld	r30, Y
    2cde:	f9 81       	ldd	r31, Y+1	; 0x01
    2ce0:	ca 5a       	subi	r28, 0xAA	; 170
    2ce2:	d0 40       	sbci	r29, 0x00	; 0
    2ce4:	09 95       	icall
					switch(lfsm.remove(&lfsm,input_tmp)){
    2ce6:	64 96       	adiw	r28, 0x14	; 20
    2ce8:	ee ad       	ldd	r30, Y+62	; 0x3e
    2cea:	ff ad       	ldd	r31, Y+63	; 0x3f
    2cec:	64 97       	sbiw	r28, 0x14	; 20
    2cee:	60 2f       	mov	r22, r16
    2cf0:	ce 01       	movw	r24, r28
    2cf2:	8e 5b       	subi	r24, 0xBE	; 190
    2cf4:	9f 4f       	sbci	r25, 0xFF	; 255
    2cf6:	09 95       	icall
    2cf8:	90 e0       	ldi	r25, 0x00	; 0
    2cfa:	8b 32       	cpi	r24, 0x2B	; 43
    2cfc:	91 05       	cpc	r25, r1
    2cfe:	08 f0       	brcs	.+2      	; 0x2d02 <main+0x6a2>
    2d00:	58 c0       	rjmp	.+176    	; 0x2db2 <main+0x752>
    2d02:	fc 01       	movw	r30, r24
    2d04:	e8 5b       	subi	r30, 0xB8	; 184
    2d06:	ff 4f       	sbci	r31, 0xFF	; 255
    2d08:	0c 94 0c 1b 	jmp	0x3618	; 0x3618 <__tablejump2__>
						case 0:
							lcd.gotoxy(3,12);
    2d0c:	6c e0       	ldi	r22, 0x0C	; 12
    2d0e:	70 e0       	ldi	r23, 0x00	; 0
    2d10:	83 e0       	ldi	r24, 0x03	; 3
    2d12:	90 e0       	ldi	r25, 0x00	; 0
    2d14:	f6 01       	movw	r30, r12
    2d16:	09 95       	icall
							lcd.string_size("No entry",7);
    2d18:	67 e0       	ldi	r22, 0x07	; 7
    2d1a:	8c e7       	ldi	r24, 0x7C	; 124
    2d1c:	91 e0       	ldi	r25, 0x01	; 1
    2d1e:	f7 01       	movw	r30, r14
    2d20:	09 95       	icall
							break;
    2d22:	47 c0       	rjmp	.+142    	; 0x2db2 <main+0x752>
						case 1:
							lcd.gotoxy(3,12);
    2d24:	6c e0       	ldi	r22, 0x0C	; 12
    2d26:	70 e0       	ldi	r23, 0x00	; 0
    2d28:	83 e0       	ldi	r24, 0x03	; 3
    2d2a:	90 e0       	ldi	r25, 0x00	; 0
    2d2c:	f6 01       	movw	r30, r12
    2d2e:	09 95       	icall
							lcd.string_size("New Entry",7);
    2d30:	67 e0       	ldi	r22, 0x07	; 7
    2d32:	85 e8       	ldi	r24, 0x85	; 133
    2d34:	91 e0       	ldi	r25, 0x01	; 1
    2d36:	f7 01       	movw	r30, r14
    2d38:	09 95       	icall
							break;
    2d3a:	3b c0       	rjmp	.+118    	; 0x2db2 <main+0x752>
						case 2:
							lcd.gotoxy(3,12);
    2d3c:	6c e0       	ldi	r22, 0x0C	; 12
    2d3e:	70 e0       	ldi	r23, 0x00	; 0
    2d40:	83 e0       	ldi	r24, 0x03	; 3
    2d42:	90 e0       	ldi	r25, 0x00	; 0
    2d44:	f6 01       	movw	r30, r12
    2d46:	09 95       	icall
							lcd.string_size("global logic",7);
    2d48:	67 e0       	ldi	r22, 0x07	; 7
    2d4a:	8f e8       	ldi	r24, 0x8F	; 143
    2d4c:	91 e0       	ldi	r25, 0x01	; 1
    2d4e:	f7 01       	movw	r30, r14
    2d50:	09 95       	icall
							break;
    2d52:	2f c0       	rjmp	.+94     	; 0x2db2 <main+0x752>
						case 3:
							lcd.gotoxy(3,12);
    2d54:	6c e0       	ldi	r22, 0x0C	; 12
    2d56:	70 e0       	ldi	r23, 0x00	; 0
    2d58:	83 e0       	ldi	r24, 0x03	; 3
    2d5a:	90 e0       	ldi	r25, 0x00	; 0
    2d5c:	f6 01       	movw	r30, r12
    2d5e:	09 95       	icall
							lcd.string_size("local logic",7);
    2d60:	67 e0       	ldi	r22, 0x07	; 7
    2d62:	8c e9       	ldi	r24, 0x9C	; 156
    2d64:	91 e0       	ldi	r25, 0x01	; 1
    2d66:	f7 01       	movw	r30, r14
    2d68:	09 95       	icall
							break;
    2d6a:	23 c0       	rjmp	.+70     	; 0x2db2 <main+0x752>
						case 4:
							lcd.gotoxy(3,12);
    2d6c:	6c e0       	ldi	r22, 0x0C	; 12
    2d6e:	70 e0       	ldi	r23, 0x00	; 0
    2d70:	83 e0       	ldi	r24, 0x03	; 3
    2d72:	90 e0       	ldi	r25, 0x00	; 0
    2d74:	f6 01       	movw	r30, r12
    2d76:	09 95       	icall
							lcd.string_size("local logic",7);
    2d78:	67 e0       	ldi	r22, 0x07	; 7
    2d7a:	8c e9       	ldi	r24, 0x9C	; 156
    2d7c:	91 e0       	ldi	r25, 0x01	; 1
    2d7e:	f7 01       	movw	r30, r14
    2d80:	09 95       	icall
							break;
    2d82:	17 c0       	rjmp	.+46     	; 0x2db2 <main+0x752>
						case 41:
							lcd.gotoxy(3,12);
    2d84:	6c e0       	ldi	r22, 0x0C	; 12
    2d86:	70 e0       	ldi	r23, 0x00	; 0
    2d88:	83 e0       	ldi	r24, 0x03	; 3
    2d8a:	90 e0       	ldi	r25, 0x00	; 0
    2d8c:	f6 01       	movw	r30, r12
    2d8e:	09 95       	icall
							lcd.string_size("local above",7);
    2d90:	67 e0       	ldi	r22, 0x07	; 7
    2d92:	88 ea       	ldi	r24, 0xA8	; 168
    2d94:	91 e0       	ldi	r25, 0x01	; 1
    2d96:	f7 01       	movw	r30, r14
    2d98:	09 95       	icall
							break;
    2d9a:	0b c0       	rjmp	.+22     	; 0x2db2 <main+0x752>
						case 42:
							lcd.gotoxy(3,12);
    2d9c:	6c e0       	ldi	r22, 0x0C	; 12
    2d9e:	70 e0       	ldi	r23, 0x00	; 0
    2da0:	83 e0       	ldi	r24, 0x03	; 3
    2da2:	90 e0       	ldi	r25, 0x00	; 0
    2da4:	f6 01       	movw	r30, r12
    2da6:	09 95       	icall
							lcd.string_size("local bellow",7);
    2da8:	67 e0       	ldi	r22, 0x07	; 7
    2daa:	84 eb       	ldi	r24, 0xB4	; 180
    2dac:	91 e0       	ldi	r25, 0x01	; 1
    2dae:	f7 01       	movw	r30, r14
    2db0:	09 95       	icall
							break;
					}//End switch
					/******/
					//lfsm.read(&lfsm,input_tmp);
					
					keypad.flush();
    2db2:	f4 01       	movw	r30, r8
    2db4:	09 95       	icall
					option=0;
    2db6:	21 2c       	mov	r2, r1
    2db8:	08 c0       	rjmp	.+16     	; 0x2dca <main+0x76a>
				}//End if
				if(keypadinput.character == 'C'){
    2dba:	f3 e4       	ldi	r31, 0x43	; 67
    2dbc:	5f 12       	cpse	r5, r31
    2dbe:	05 c0       	rjmp	.+10     	; 0x2dca <main+0x76a>
					keypad.flush();
    2dc0:	f4 01       	movw	r30, r8
    2dc2:	09 95       	icall
					option=8;
    2dc4:	68 94       	set
    2dc6:	22 24       	eor	r2, r2
    2dc8:	23 f8       	bld	r2, 3
				break;
			default:
				break;
		}//End switch
		/***DISPLAY***/
		lcd.gotoxy(3,0);
    2dca:	60 e0       	ldi	r22, 0x00	; 0
    2dcc:	70 e0       	ldi	r23, 0x00	; 0
    2dce:	83 e0       	ldi	r24, 0x03	; 3
    2dd0:	90 e0       	ldi	r25, 0x00	; 0
    2dd2:	f6 01       	movw	r30, r12
    2dd4:	09 95       	icall
		lcd.string_size("Output ",7);
    2dd6:	67 e0       	ldi	r22, 0x07	; 7
    2dd8:	81 ec       	ldi	r24, 0xC1	; 193
    2dda:	91 e0       	ldi	r25, 0x01	; 1
    2ddc:	f7 01       	movw	r30, r14
    2dde:	09 95       	icall
		string = func.ui16toa(lfsm.getoutput(&lfsm));
    2de0:	6a 96       	adiw	r28, 0x1a	; 26
    2de2:	ee ad       	ldd	r30, Y+62	; 0x3e
    2de4:	ff ad       	ldd	r31, Y+63	; 0x3f
    2de6:	6a 97       	sbiw	r28, 0x1a	; 26
    2de8:	ce 01       	movw	r24, r28
    2dea:	8e 5b       	subi	r24, 0xBE	; 190
    2dec:	9f 4f       	sbci	r25, 0xFF	; 255
    2dee:	09 95       	icall
    2df0:	f5 01       	movw	r30, r10
    2df2:	09 95       	icall
    2df4:	90 93 26 03 	sts	0x0326, r25	; 0x800326 <string+0x1>
    2df8:	80 93 25 03 	sts	0x0325, r24	; 0x800325 <string>
		lcd.string_size(string,4);
    2dfc:	64 e0       	ldi	r22, 0x04	; 4
    2dfe:	f7 01       	movw	r30, r14
    2e00:	09 95       	icall
		//lcd.hspace(2);
		//func.ui16toa(lfsm.getstatus(&lfsm),string);
		//lcd.string_size(string,4);
		PORTB=lfsm.getoutput(&lfsm);
    2e02:	6a 96       	adiw	r28, 0x1a	; 26
    2e04:	ee ad       	ldd	r30, Y+62	; 0x3e
    2e06:	ff ad       	ldd	r31, Y+63	; 0x3f
    2e08:	6a 97       	sbiw	r28, 0x1a	; 26
    2e0a:	ce 01       	movw	r24, r28
    2e0c:	8e 5b       	subi	r24, 0xBE	; 190
    2e0e:	9f 4f       	sbci	r25, 0xFF	; 255
    2e10:	09 95       	icall
    2e12:	85 b9       	out	0x05, r24	; 5
    2e14:	9f cc       	rjmp	.-1730   	; 0x2754 <main+0xf4>

00002e16 <__subsf3>:
    2e16:	50 58       	subi	r21, 0x80	; 128

00002e18 <__addsf3>:
    2e18:	bb 27       	eor	r27, r27
    2e1a:	aa 27       	eor	r26, r26
    2e1c:	0e 94 23 17 	call	0x2e46	; 0x2e46 <__addsf3x>
    2e20:	0c 94 2b 18 	jmp	0x3056	; 0x3056 <__fp_round>
    2e24:	0e 94 1d 18 	call	0x303a	; 0x303a <__fp_pscA>
    2e28:	38 f0       	brcs	.+14     	; 0x2e38 <__addsf3+0x20>
    2e2a:	0e 94 24 18 	call	0x3048	; 0x3048 <__fp_pscB>
    2e2e:	20 f0       	brcs	.+8      	; 0x2e38 <__addsf3+0x20>
    2e30:	39 f4       	brne	.+14     	; 0x2e40 <__addsf3+0x28>
    2e32:	9f 3f       	cpi	r25, 0xFF	; 255
    2e34:	19 f4       	brne	.+6      	; 0x2e3c <__addsf3+0x24>
    2e36:	26 f4       	brtc	.+8      	; 0x2e40 <__addsf3+0x28>
    2e38:	0c 94 1a 18 	jmp	0x3034	; 0x3034 <__fp_nan>
    2e3c:	0e f4       	brtc	.+2      	; 0x2e40 <__addsf3+0x28>
    2e3e:	e0 95       	com	r30
    2e40:	e7 fb       	bst	r30, 7
    2e42:	0c 94 14 18 	jmp	0x3028	; 0x3028 <__fp_inf>

00002e46 <__addsf3x>:
    2e46:	e9 2f       	mov	r30, r25
    2e48:	0e 94 3c 18 	call	0x3078	; 0x3078 <__fp_split3>
    2e4c:	58 f3       	brcs	.-42     	; 0x2e24 <__addsf3+0xc>
    2e4e:	ba 17       	cp	r27, r26
    2e50:	62 07       	cpc	r22, r18
    2e52:	73 07       	cpc	r23, r19
    2e54:	84 07       	cpc	r24, r20
    2e56:	95 07       	cpc	r25, r21
    2e58:	20 f0       	brcs	.+8      	; 0x2e62 <__addsf3x+0x1c>
    2e5a:	79 f4       	brne	.+30     	; 0x2e7a <__addsf3x+0x34>
    2e5c:	a6 f5       	brtc	.+104    	; 0x2ec6 <__addsf3x+0x80>
    2e5e:	0c 94 5e 18 	jmp	0x30bc	; 0x30bc <__fp_zero>
    2e62:	0e f4       	brtc	.+2      	; 0x2e66 <__addsf3x+0x20>
    2e64:	e0 95       	com	r30
    2e66:	0b 2e       	mov	r0, r27
    2e68:	ba 2f       	mov	r27, r26
    2e6a:	a0 2d       	mov	r26, r0
    2e6c:	0b 01       	movw	r0, r22
    2e6e:	b9 01       	movw	r22, r18
    2e70:	90 01       	movw	r18, r0
    2e72:	0c 01       	movw	r0, r24
    2e74:	ca 01       	movw	r24, r20
    2e76:	a0 01       	movw	r20, r0
    2e78:	11 24       	eor	r1, r1
    2e7a:	ff 27       	eor	r31, r31
    2e7c:	59 1b       	sub	r21, r25
    2e7e:	99 f0       	breq	.+38     	; 0x2ea6 <__addsf3x+0x60>
    2e80:	59 3f       	cpi	r21, 0xF9	; 249
    2e82:	50 f4       	brcc	.+20     	; 0x2e98 <__addsf3x+0x52>
    2e84:	50 3e       	cpi	r21, 0xE0	; 224
    2e86:	68 f1       	brcs	.+90     	; 0x2ee2 <__addsf3x+0x9c>
    2e88:	1a 16       	cp	r1, r26
    2e8a:	f0 40       	sbci	r31, 0x00	; 0
    2e8c:	a2 2f       	mov	r26, r18
    2e8e:	23 2f       	mov	r18, r19
    2e90:	34 2f       	mov	r19, r20
    2e92:	44 27       	eor	r20, r20
    2e94:	58 5f       	subi	r21, 0xF8	; 248
    2e96:	f3 cf       	rjmp	.-26     	; 0x2e7e <__addsf3x+0x38>
    2e98:	46 95       	lsr	r20
    2e9a:	37 95       	ror	r19
    2e9c:	27 95       	ror	r18
    2e9e:	a7 95       	ror	r26
    2ea0:	f0 40       	sbci	r31, 0x00	; 0
    2ea2:	53 95       	inc	r21
    2ea4:	c9 f7       	brne	.-14     	; 0x2e98 <__addsf3x+0x52>
    2ea6:	7e f4       	brtc	.+30     	; 0x2ec6 <__addsf3x+0x80>
    2ea8:	1f 16       	cp	r1, r31
    2eaa:	ba 0b       	sbc	r27, r26
    2eac:	62 0b       	sbc	r22, r18
    2eae:	73 0b       	sbc	r23, r19
    2eb0:	84 0b       	sbc	r24, r20
    2eb2:	ba f0       	brmi	.+46     	; 0x2ee2 <__addsf3x+0x9c>
    2eb4:	91 50       	subi	r25, 0x01	; 1
    2eb6:	a1 f0       	breq	.+40     	; 0x2ee0 <__addsf3x+0x9a>
    2eb8:	ff 0f       	add	r31, r31
    2eba:	bb 1f       	adc	r27, r27
    2ebc:	66 1f       	adc	r22, r22
    2ebe:	77 1f       	adc	r23, r23
    2ec0:	88 1f       	adc	r24, r24
    2ec2:	c2 f7       	brpl	.-16     	; 0x2eb4 <__addsf3x+0x6e>
    2ec4:	0e c0       	rjmp	.+28     	; 0x2ee2 <__addsf3x+0x9c>
    2ec6:	ba 0f       	add	r27, r26
    2ec8:	62 1f       	adc	r22, r18
    2eca:	73 1f       	adc	r23, r19
    2ecc:	84 1f       	adc	r24, r20
    2ece:	48 f4       	brcc	.+18     	; 0x2ee2 <__addsf3x+0x9c>
    2ed0:	87 95       	ror	r24
    2ed2:	77 95       	ror	r23
    2ed4:	67 95       	ror	r22
    2ed6:	b7 95       	ror	r27
    2ed8:	f7 95       	ror	r31
    2eda:	9e 3f       	cpi	r25, 0xFE	; 254
    2edc:	08 f0       	brcs	.+2      	; 0x2ee0 <__addsf3x+0x9a>
    2ede:	b0 cf       	rjmp	.-160    	; 0x2e40 <__addsf3+0x28>
    2ee0:	93 95       	inc	r25
    2ee2:	88 0f       	add	r24, r24
    2ee4:	08 f0       	brcs	.+2      	; 0x2ee8 <__addsf3x+0xa2>
    2ee6:	99 27       	eor	r25, r25
    2ee8:	ee 0f       	add	r30, r30
    2eea:	97 95       	ror	r25
    2eec:	87 95       	ror	r24
    2eee:	08 95       	ret

00002ef0 <__cmpsf2>:
    2ef0:	0e 94 f0 17 	call	0x2fe0	; 0x2fe0 <__fp_cmp>
    2ef4:	08 f4       	brcc	.+2      	; 0x2ef8 <__cmpsf2+0x8>
    2ef6:	81 e0       	ldi	r24, 0x01	; 1
    2ef8:	08 95       	ret

00002efa <__fixsfsi>:
    2efa:	0e 94 84 17 	call	0x2f08	; 0x2f08 <__fixunssfsi>
    2efe:	68 94       	set
    2f00:	b1 11       	cpse	r27, r1
    2f02:	0c 94 5f 18 	jmp	0x30be	; 0x30be <__fp_szero>
    2f06:	08 95       	ret

00002f08 <__fixunssfsi>:
    2f08:	0e 94 44 18 	call	0x3088	; 0x3088 <__fp_splitA>
    2f0c:	88 f0       	brcs	.+34     	; 0x2f30 <__fixunssfsi+0x28>
    2f0e:	9f 57       	subi	r25, 0x7F	; 127
    2f10:	98 f0       	brcs	.+38     	; 0x2f38 <__fixunssfsi+0x30>
    2f12:	b9 2f       	mov	r27, r25
    2f14:	99 27       	eor	r25, r25
    2f16:	b7 51       	subi	r27, 0x17	; 23
    2f18:	b0 f0       	brcs	.+44     	; 0x2f46 <__fixunssfsi+0x3e>
    2f1a:	e1 f0       	breq	.+56     	; 0x2f54 <__fixunssfsi+0x4c>
    2f1c:	66 0f       	add	r22, r22
    2f1e:	77 1f       	adc	r23, r23
    2f20:	88 1f       	adc	r24, r24
    2f22:	99 1f       	adc	r25, r25
    2f24:	1a f0       	brmi	.+6      	; 0x2f2c <__fixunssfsi+0x24>
    2f26:	ba 95       	dec	r27
    2f28:	c9 f7       	brne	.-14     	; 0x2f1c <__fixunssfsi+0x14>
    2f2a:	14 c0       	rjmp	.+40     	; 0x2f54 <__fixunssfsi+0x4c>
    2f2c:	b1 30       	cpi	r27, 0x01	; 1
    2f2e:	91 f0       	breq	.+36     	; 0x2f54 <__fixunssfsi+0x4c>
    2f30:	0e 94 5e 18 	call	0x30bc	; 0x30bc <__fp_zero>
    2f34:	b1 e0       	ldi	r27, 0x01	; 1
    2f36:	08 95       	ret
    2f38:	0c 94 5e 18 	jmp	0x30bc	; 0x30bc <__fp_zero>
    2f3c:	67 2f       	mov	r22, r23
    2f3e:	78 2f       	mov	r23, r24
    2f40:	88 27       	eor	r24, r24
    2f42:	b8 5f       	subi	r27, 0xF8	; 248
    2f44:	39 f0       	breq	.+14     	; 0x2f54 <__fixunssfsi+0x4c>
    2f46:	b9 3f       	cpi	r27, 0xF9	; 249
    2f48:	cc f3       	brlt	.-14     	; 0x2f3c <__fixunssfsi+0x34>
    2f4a:	86 95       	lsr	r24
    2f4c:	77 95       	ror	r23
    2f4e:	67 95       	ror	r22
    2f50:	b3 95       	inc	r27
    2f52:	d9 f7       	brne	.-10     	; 0x2f4a <__fixunssfsi+0x42>
    2f54:	3e f4       	brtc	.+14     	; 0x2f64 <__fixunssfsi+0x5c>
    2f56:	90 95       	com	r25
    2f58:	80 95       	com	r24
    2f5a:	70 95       	com	r23
    2f5c:	61 95       	neg	r22
    2f5e:	7f 4f       	sbci	r23, 0xFF	; 255
    2f60:	8f 4f       	sbci	r24, 0xFF	; 255
    2f62:	9f 4f       	sbci	r25, 0xFF	; 255
    2f64:	08 95       	ret

00002f66 <__floatunsisf>:
    2f66:	e8 94       	clt
    2f68:	09 c0       	rjmp	.+18     	; 0x2f7c <__floatsisf+0x12>

00002f6a <__floatsisf>:
    2f6a:	97 fb       	bst	r25, 7
    2f6c:	3e f4       	brtc	.+14     	; 0x2f7c <__floatsisf+0x12>
    2f6e:	90 95       	com	r25
    2f70:	80 95       	com	r24
    2f72:	70 95       	com	r23
    2f74:	61 95       	neg	r22
    2f76:	7f 4f       	sbci	r23, 0xFF	; 255
    2f78:	8f 4f       	sbci	r24, 0xFF	; 255
    2f7a:	9f 4f       	sbci	r25, 0xFF	; 255
    2f7c:	99 23       	and	r25, r25
    2f7e:	a9 f0       	breq	.+42     	; 0x2faa <__floatsisf+0x40>
    2f80:	f9 2f       	mov	r31, r25
    2f82:	96 e9       	ldi	r25, 0x96	; 150
    2f84:	bb 27       	eor	r27, r27
    2f86:	93 95       	inc	r25
    2f88:	f6 95       	lsr	r31
    2f8a:	87 95       	ror	r24
    2f8c:	77 95       	ror	r23
    2f8e:	67 95       	ror	r22
    2f90:	b7 95       	ror	r27
    2f92:	f1 11       	cpse	r31, r1
    2f94:	f8 cf       	rjmp	.-16     	; 0x2f86 <__floatsisf+0x1c>
    2f96:	fa f4       	brpl	.+62     	; 0x2fd6 <__floatsisf+0x6c>
    2f98:	bb 0f       	add	r27, r27
    2f9a:	11 f4       	brne	.+4      	; 0x2fa0 <__floatsisf+0x36>
    2f9c:	60 ff       	sbrs	r22, 0
    2f9e:	1b c0       	rjmp	.+54     	; 0x2fd6 <__floatsisf+0x6c>
    2fa0:	6f 5f       	subi	r22, 0xFF	; 255
    2fa2:	7f 4f       	sbci	r23, 0xFF	; 255
    2fa4:	8f 4f       	sbci	r24, 0xFF	; 255
    2fa6:	9f 4f       	sbci	r25, 0xFF	; 255
    2fa8:	16 c0       	rjmp	.+44     	; 0x2fd6 <__floatsisf+0x6c>
    2faa:	88 23       	and	r24, r24
    2fac:	11 f0       	breq	.+4      	; 0x2fb2 <__floatsisf+0x48>
    2fae:	96 e9       	ldi	r25, 0x96	; 150
    2fb0:	11 c0       	rjmp	.+34     	; 0x2fd4 <__floatsisf+0x6a>
    2fb2:	77 23       	and	r23, r23
    2fb4:	21 f0       	breq	.+8      	; 0x2fbe <__floatsisf+0x54>
    2fb6:	9e e8       	ldi	r25, 0x8E	; 142
    2fb8:	87 2f       	mov	r24, r23
    2fba:	76 2f       	mov	r23, r22
    2fbc:	05 c0       	rjmp	.+10     	; 0x2fc8 <__floatsisf+0x5e>
    2fbe:	66 23       	and	r22, r22
    2fc0:	71 f0       	breq	.+28     	; 0x2fde <__floatsisf+0x74>
    2fc2:	96 e8       	ldi	r25, 0x86	; 134
    2fc4:	86 2f       	mov	r24, r22
    2fc6:	70 e0       	ldi	r23, 0x00	; 0
    2fc8:	60 e0       	ldi	r22, 0x00	; 0
    2fca:	2a f0       	brmi	.+10     	; 0x2fd6 <__floatsisf+0x6c>
    2fcc:	9a 95       	dec	r25
    2fce:	66 0f       	add	r22, r22
    2fd0:	77 1f       	adc	r23, r23
    2fd2:	88 1f       	adc	r24, r24
    2fd4:	da f7       	brpl	.-10     	; 0x2fcc <__floatsisf+0x62>
    2fd6:	88 0f       	add	r24, r24
    2fd8:	96 95       	lsr	r25
    2fda:	87 95       	ror	r24
    2fdc:	97 f9       	bld	r25, 7
    2fde:	08 95       	ret

00002fe0 <__fp_cmp>:
    2fe0:	99 0f       	add	r25, r25
    2fe2:	00 08       	sbc	r0, r0
    2fe4:	55 0f       	add	r21, r21
    2fe6:	aa 0b       	sbc	r26, r26
    2fe8:	e0 e8       	ldi	r30, 0x80	; 128
    2fea:	fe ef       	ldi	r31, 0xFE	; 254
    2fec:	16 16       	cp	r1, r22
    2fee:	17 06       	cpc	r1, r23
    2ff0:	e8 07       	cpc	r30, r24
    2ff2:	f9 07       	cpc	r31, r25
    2ff4:	c0 f0       	brcs	.+48     	; 0x3026 <__fp_cmp+0x46>
    2ff6:	12 16       	cp	r1, r18
    2ff8:	13 06       	cpc	r1, r19
    2ffa:	e4 07       	cpc	r30, r20
    2ffc:	f5 07       	cpc	r31, r21
    2ffe:	98 f0       	brcs	.+38     	; 0x3026 <__fp_cmp+0x46>
    3000:	62 1b       	sub	r22, r18
    3002:	73 0b       	sbc	r23, r19
    3004:	84 0b       	sbc	r24, r20
    3006:	95 0b       	sbc	r25, r21
    3008:	39 f4       	brne	.+14     	; 0x3018 <__fp_cmp+0x38>
    300a:	0a 26       	eor	r0, r26
    300c:	61 f0       	breq	.+24     	; 0x3026 <__fp_cmp+0x46>
    300e:	23 2b       	or	r18, r19
    3010:	24 2b       	or	r18, r20
    3012:	25 2b       	or	r18, r21
    3014:	21 f4       	brne	.+8      	; 0x301e <__fp_cmp+0x3e>
    3016:	08 95       	ret
    3018:	0a 26       	eor	r0, r26
    301a:	09 f4       	brne	.+2      	; 0x301e <__fp_cmp+0x3e>
    301c:	a1 40       	sbci	r26, 0x01	; 1
    301e:	a6 95       	lsr	r26
    3020:	8f ef       	ldi	r24, 0xFF	; 255
    3022:	81 1d       	adc	r24, r1
    3024:	81 1d       	adc	r24, r1
    3026:	08 95       	ret

00003028 <__fp_inf>:
    3028:	97 f9       	bld	r25, 7
    302a:	9f 67       	ori	r25, 0x7F	; 127
    302c:	80 e8       	ldi	r24, 0x80	; 128
    302e:	70 e0       	ldi	r23, 0x00	; 0
    3030:	60 e0       	ldi	r22, 0x00	; 0
    3032:	08 95       	ret

00003034 <__fp_nan>:
    3034:	9f ef       	ldi	r25, 0xFF	; 255
    3036:	80 ec       	ldi	r24, 0xC0	; 192
    3038:	08 95       	ret

0000303a <__fp_pscA>:
    303a:	00 24       	eor	r0, r0
    303c:	0a 94       	dec	r0
    303e:	16 16       	cp	r1, r22
    3040:	17 06       	cpc	r1, r23
    3042:	18 06       	cpc	r1, r24
    3044:	09 06       	cpc	r0, r25
    3046:	08 95       	ret

00003048 <__fp_pscB>:
    3048:	00 24       	eor	r0, r0
    304a:	0a 94       	dec	r0
    304c:	12 16       	cp	r1, r18
    304e:	13 06       	cpc	r1, r19
    3050:	14 06       	cpc	r1, r20
    3052:	05 06       	cpc	r0, r21
    3054:	08 95       	ret

00003056 <__fp_round>:
    3056:	09 2e       	mov	r0, r25
    3058:	03 94       	inc	r0
    305a:	00 0c       	add	r0, r0
    305c:	11 f4       	brne	.+4      	; 0x3062 <__fp_round+0xc>
    305e:	88 23       	and	r24, r24
    3060:	52 f0       	brmi	.+20     	; 0x3076 <__fp_round+0x20>
    3062:	bb 0f       	add	r27, r27
    3064:	40 f4       	brcc	.+16     	; 0x3076 <__fp_round+0x20>
    3066:	bf 2b       	or	r27, r31
    3068:	11 f4       	brne	.+4      	; 0x306e <__fp_round+0x18>
    306a:	60 ff       	sbrs	r22, 0
    306c:	04 c0       	rjmp	.+8      	; 0x3076 <__fp_round+0x20>
    306e:	6f 5f       	subi	r22, 0xFF	; 255
    3070:	7f 4f       	sbci	r23, 0xFF	; 255
    3072:	8f 4f       	sbci	r24, 0xFF	; 255
    3074:	9f 4f       	sbci	r25, 0xFF	; 255
    3076:	08 95       	ret

00003078 <__fp_split3>:
    3078:	57 fd       	sbrc	r21, 7
    307a:	90 58       	subi	r25, 0x80	; 128
    307c:	44 0f       	add	r20, r20
    307e:	55 1f       	adc	r21, r21
    3080:	59 f0       	breq	.+22     	; 0x3098 <__fp_splitA+0x10>
    3082:	5f 3f       	cpi	r21, 0xFF	; 255
    3084:	71 f0       	breq	.+28     	; 0x30a2 <__fp_splitA+0x1a>
    3086:	47 95       	ror	r20

00003088 <__fp_splitA>:
    3088:	88 0f       	add	r24, r24
    308a:	97 fb       	bst	r25, 7
    308c:	99 1f       	adc	r25, r25
    308e:	61 f0       	breq	.+24     	; 0x30a8 <__fp_splitA+0x20>
    3090:	9f 3f       	cpi	r25, 0xFF	; 255
    3092:	79 f0       	breq	.+30     	; 0x30b2 <__fp_splitA+0x2a>
    3094:	87 95       	ror	r24
    3096:	08 95       	ret
    3098:	12 16       	cp	r1, r18
    309a:	13 06       	cpc	r1, r19
    309c:	14 06       	cpc	r1, r20
    309e:	55 1f       	adc	r21, r21
    30a0:	f2 cf       	rjmp	.-28     	; 0x3086 <__fp_split3+0xe>
    30a2:	46 95       	lsr	r20
    30a4:	f1 df       	rcall	.-30     	; 0x3088 <__fp_splitA>
    30a6:	08 c0       	rjmp	.+16     	; 0x30b8 <__fp_splitA+0x30>
    30a8:	16 16       	cp	r1, r22
    30aa:	17 06       	cpc	r1, r23
    30ac:	18 06       	cpc	r1, r24
    30ae:	99 1f       	adc	r25, r25
    30b0:	f1 cf       	rjmp	.-30     	; 0x3094 <__fp_splitA+0xc>
    30b2:	86 95       	lsr	r24
    30b4:	71 05       	cpc	r23, r1
    30b6:	61 05       	cpc	r22, r1
    30b8:	08 94       	sec
    30ba:	08 95       	ret

000030bc <__fp_zero>:
    30bc:	e8 94       	clt

000030be <__fp_szero>:
    30be:	bb 27       	eor	r27, r27
    30c0:	66 27       	eor	r22, r22
    30c2:	77 27       	eor	r23, r23
    30c4:	cb 01       	movw	r24, r22
    30c6:	97 f9       	bld	r25, 7
    30c8:	08 95       	ret

000030ca <__mulsf3>:
    30ca:	0e 94 78 18 	call	0x30f0	; 0x30f0 <__mulsf3x>
    30ce:	0c 94 2b 18 	jmp	0x3056	; 0x3056 <__fp_round>
    30d2:	0e 94 1d 18 	call	0x303a	; 0x303a <__fp_pscA>
    30d6:	38 f0       	brcs	.+14     	; 0x30e6 <__mulsf3+0x1c>
    30d8:	0e 94 24 18 	call	0x3048	; 0x3048 <__fp_pscB>
    30dc:	20 f0       	brcs	.+8      	; 0x30e6 <__mulsf3+0x1c>
    30de:	95 23       	and	r25, r21
    30e0:	11 f0       	breq	.+4      	; 0x30e6 <__mulsf3+0x1c>
    30e2:	0c 94 14 18 	jmp	0x3028	; 0x3028 <__fp_inf>
    30e6:	0c 94 1a 18 	jmp	0x3034	; 0x3034 <__fp_nan>
    30ea:	11 24       	eor	r1, r1
    30ec:	0c 94 5f 18 	jmp	0x30be	; 0x30be <__fp_szero>

000030f0 <__mulsf3x>:
    30f0:	0e 94 3c 18 	call	0x3078	; 0x3078 <__fp_split3>
    30f4:	70 f3       	brcs	.-36     	; 0x30d2 <__mulsf3+0x8>

000030f6 <__mulsf3_pse>:
    30f6:	95 9f       	mul	r25, r21
    30f8:	c1 f3       	breq	.-16     	; 0x30ea <__mulsf3+0x20>
    30fa:	95 0f       	add	r25, r21
    30fc:	50 e0       	ldi	r21, 0x00	; 0
    30fe:	55 1f       	adc	r21, r21
    3100:	62 9f       	mul	r22, r18
    3102:	f0 01       	movw	r30, r0
    3104:	72 9f       	mul	r23, r18
    3106:	bb 27       	eor	r27, r27
    3108:	f0 0d       	add	r31, r0
    310a:	b1 1d       	adc	r27, r1
    310c:	63 9f       	mul	r22, r19
    310e:	aa 27       	eor	r26, r26
    3110:	f0 0d       	add	r31, r0
    3112:	b1 1d       	adc	r27, r1
    3114:	aa 1f       	adc	r26, r26
    3116:	64 9f       	mul	r22, r20
    3118:	66 27       	eor	r22, r22
    311a:	b0 0d       	add	r27, r0
    311c:	a1 1d       	adc	r26, r1
    311e:	66 1f       	adc	r22, r22
    3120:	82 9f       	mul	r24, r18
    3122:	22 27       	eor	r18, r18
    3124:	b0 0d       	add	r27, r0
    3126:	a1 1d       	adc	r26, r1
    3128:	62 1f       	adc	r22, r18
    312a:	73 9f       	mul	r23, r19
    312c:	b0 0d       	add	r27, r0
    312e:	a1 1d       	adc	r26, r1
    3130:	62 1f       	adc	r22, r18
    3132:	83 9f       	mul	r24, r19
    3134:	a0 0d       	add	r26, r0
    3136:	61 1d       	adc	r22, r1
    3138:	22 1f       	adc	r18, r18
    313a:	74 9f       	mul	r23, r20
    313c:	33 27       	eor	r19, r19
    313e:	a0 0d       	add	r26, r0
    3140:	61 1d       	adc	r22, r1
    3142:	23 1f       	adc	r18, r19
    3144:	84 9f       	mul	r24, r20
    3146:	60 0d       	add	r22, r0
    3148:	21 1d       	adc	r18, r1
    314a:	82 2f       	mov	r24, r18
    314c:	76 2f       	mov	r23, r22
    314e:	6a 2f       	mov	r22, r26
    3150:	11 24       	eor	r1, r1
    3152:	9f 57       	subi	r25, 0x7F	; 127
    3154:	50 40       	sbci	r21, 0x00	; 0
    3156:	9a f0       	brmi	.+38     	; 0x317e <__mulsf3_pse+0x88>
    3158:	f1 f0       	breq	.+60     	; 0x3196 <__mulsf3_pse+0xa0>
    315a:	88 23       	and	r24, r24
    315c:	4a f0       	brmi	.+18     	; 0x3170 <__mulsf3_pse+0x7a>
    315e:	ee 0f       	add	r30, r30
    3160:	ff 1f       	adc	r31, r31
    3162:	bb 1f       	adc	r27, r27
    3164:	66 1f       	adc	r22, r22
    3166:	77 1f       	adc	r23, r23
    3168:	88 1f       	adc	r24, r24
    316a:	91 50       	subi	r25, 0x01	; 1
    316c:	50 40       	sbci	r21, 0x00	; 0
    316e:	a9 f7       	brne	.-22     	; 0x315a <__mulsf3_pse+0x64>
    3170:	9e 3f       	cpi	r25, 0xFE	; 254
    3172:	51 05       	cpc	r21, r1
    3174:	80 f0       	brcs	.+32     	; 0x3196 <__mulsf3_pse+0xa0>
    3176:	0c 94 14 18 	jmp	0x3028	; 0x3028 <__fp_inf>
    317a:	0c 94 5f 18 	jmp	0x30be	; 0x30be <__fp_szero>
    317e:	5f 3f       	cpi	r21, 0xFF	; 255
    3180:	e4 f3       	brlt	.-8      	; 0x317a <__mulsf3_pse+0x84>
    3182:	98 3e       	cpi	r25, 0xE8	; 232
    3184:	d4 f3       	brlt	.-12     	; 0x317a <__mulsf3_pse+0x84>
    3186:	86 95       	lsr	r24
    3188:	77 95       	ror	r23
    318a:	67 95       	ror	r22
    318c:	b7 95       	ror	r27
    318e:	f7 95       	ror	r31
    3190:	e7 95       	ror	r30
    3192:	9f 5f       	subi	r25, 0xFF	; 255
    3194:	c1 f7       	brne	.-16     	; 0x3186 <__mulsf3_pse+0x90>
    3196:	fe 2b       	or	r31, r30
    3198:	88 0f       	add	r24, r24
    319a:	91 1d       	adc	r25, r1
    319c:	96 95       	lsr	r25
    319e:	87 95       	ror	r24
    31a0:	97 f9       	bld	r25, 7
    31a2:	08 95       	ret

000031a4 <pow>:
    31a4:	fa 01       	movw	r30, r20
    31a6:	ee 0f       	add	r30, r30
    31a8:	ff 1f       	adc	r31, r31
    31aa:	30 96       	adiw	r30, 0x00	; 0
    31ac:	21 05       	cpc	r18, r1
    31ae:	31 05       	cpc	r19, r1
    31b0:	a1 f1       	breq	.+104    	; 0x321a <pow+0x76>
    31b2:	61 15       	cp	r22, r1
    31b4:	71 05       	cpc	r23, r1
    31b6:	61 f4       	brne	.+24     	; 0x31d0 <pow+0x2c>
    31b8:	80 38       	cpi	r24, 0x80	; 128
    31ba:	bf e3       	ldi	r27, 0x3F	; 63
    31bc:	9b 07       	cpc	r25, r27
    31be:	49 f1       	breq	.+82     	; 0x3212 <pow+0x6e>
    31c0:	68 94       	set
    31c2:	90 38       	cpi	r25, 0x80	; 128
    31c4:	81 05       	cpc	r24, r1
    31c6:	61 f0       	breq	.+24     	; 0x31e0 <pow+0x3c>
    31c8:	80 38       	cpi	r24, 0x80	; 128
    31ca:	bf ef       	ldi	r27, 0xFF	; 255
    31cc:	9b 07       	cpc	r25, r27
    31ce:	41 f0       	breq	.+16     	; 0x31e0 <pow+0x3c>
    31d0:	99 23       	and	r25, r25
    31d2:	4a f5       	brpl	.+82     	; 0x3226 <pow+0x82>
    31d4:	ff 3f       	cpi	r31, 0xFF	; 255
    31d6:	e1 05       	cpc	r30, r1
    31d8:	31 05       	cpc	r19, r1
    31da:	21 05       	cpc	r18, r1
    31dc:	19 f1       	breq	.+70     	; 0x3224 <pow+0x80>
    31de:	e8 94       	clt
    31e0:	08 94       	sec
    31e2:	e7 95       	ror	r30
    31e4:	d9 01       	movw	r26, r18
    31e6:	aa 23       	and	r26, r26
    31e8:	29 f4       	brne	.+10     	; 0x31f4 <pow+0x50>
    31ea:	ab 2f       	mov	r26, r27
    31ec:	be 2f       	mov	r27, r30
    31ee:	f8 5f       	subi	r31, 0xF8	; 248
    31f0:	d0 f3       	brcs	.-12     	; 0x31e6 <pow+0x42>
    31f2:	10 c0       	rjmp	.+32     	; 0x3214 <pow+0x70>
    31f4:	ff 5f       	subi	r31, 0xFF	; 255
    31f6:	70 f4       	brcc	.+28     	; 0x3214 <pow+0x70>
    31f8:	a6 95       	lsr	r26
    31fa:	e0 f7       	brcc	.-8      	; 0x31f4 <pow+0x50>
    31fc:	f7 39       	cpi	r31, 0x97	; 151
    31fe:	50 f0       	brcs	.+20     	; 0x3214 <pow+0x70>
    3200:	19 f0       	breq	.+6      	; 0x3208 <pow+0x64>
    3202:	ff 3a       	cpi	r31, 0xAF	; 175
    3204:	38 f4       	brcc	.+14     	; 0x3214 <pow+0x70>
    3206:	9f 77       	andi	r25, 0x7F	; 127
    3208:	9f 93       	push	r25
    320a:	0d d0       	rcall	.+26     	; 0x3226 <pow+0x82>
    320c:	0f 90       	pop	r0
    320e:	07 fc       	sbrc	r0, 7
    3210:	90 58       	subi	r25, 0x80	; 128
    3212:	08 95       	ret
    3214:	46 f0       	brts	.+16     	; 0x3226 <pow+0x82>
    3216:	0c 94 1a 18 	jmp	0x3034	; 0x3034 <__fp_nan>
    321a:	60 e0       	ldi	r22, 0x00	; 0
    321c:	70 e0       	ldi	r23, 0x00	; 0
    321e:	80 e8       	ldi	r24, 0x80	; 128
    3220:	9f e3       	ldi	r25, 0x3F	; 63
    3222:	08 95       	ret
    3224:	4f e7       	ldi	r20, 0x7F	; 127
    3226:	9f 77       	andi	r25, 0x7F	; 127
    3228:	5f 93       	push	r21
    322a:	4f 93       	push	r20
    322c:	3f 93       	push	r19
    322e:	2f 93       	push	r18
    3230:	0e 94 cd 19 	call	0x339a	; 0x339a <log>
    3234:	2f 91       	pop	r18
    3236:	3f 91       	pop	r19
    3238:	4f 91       	pop	r20
    323a:	5f 91       	pop	r21
    323c:	0e 94 65 18 	call	0x30ca	; 0x30ca <__mulsf3>
    3240:	0c 94 2a 19 	jmp	0x3254	; 0x3254 <exp>
    3244:	29 f4       	brne	.+10     	; 0x3250 <pow+0xac>
    3246:	16 f0       	brts	.+4      	; 0x324c <pow+0xa8>
    3248:	0c 94 14 18 	jmp	0x3028	; 0x3028 <__fp_inf>
    324c:	0c 94 5e 18 	jmp	0x30bc	; 0x30bc <__fp_zero>
    3250:	0c 94 1a 18 	jmp	0x3034	; 0x3034 <__fp_nan>

00003254 <exp>:
    3254:	0e 94 44 18 	call	0x3088	; 0x3088 <__fp_splitA>
    3258:	a8 f3       	brcs	.-22     	; 0x3244 <pow+0xa0>
    325a:	96 38       	cpi	r25, 0x86	; 134
    325c:	a0 f7       	brcc	.-24     	; 0x3246 <pow+0xa2>
    325e:	07 f8       	bld	r0, 7
    3260:	0f 92       	push	r0
    3262:	e8 94       	clt
    3264:	2b e3       	ldi	r18, 0x3B	; 59
    3266:	3a ea       	ldi	r19, 0xAA	; 170
    3268:	48 eb       	ldi	r20, 0xB8	; 184
    326a:	5f e7       	ldi	r21, 0x7F	; 127
    326c:	0e 94 7b 18 	call	0x30f6	; 0x30f6 <__mulsf3_pse>
    3270:	0f 92       	push	r0
    3272:	0f 92       	push	r0
    3274:	0f 92       	push	r0
    3276:	4d b7       	in	r20, 0x3d	; 61
    3278:	5e b7       	in	r21, 0x3e	; 62
    327a:	0f 92       	push	r0
    327c:	0e 94 15 1a 	call	0x342a	; 0x342a <modf>
    3280:	e6 ee       	ldi	r30, 0xE6	; 230
    3282:	f0 e0       	ldi	r31, 0x00	; 0
    3284:	0e 94 5c 19 	call	0x32b8	; 0x32b8 <__fp_powser>
    3288:	4f 91       	pop	r20
    328a:	5f 91       	pop	r21
    328c:	ef 91       	pop	r30
    328e:	ff 91       	pop	r31
    3290:	e5 95       	asr	r30
    3292:	ee 1f       	adc	r30, r30
    3294:	ff 1f       	adc	r31, r31
    3296:	49 f0       	breq	.+18     	; 0x32aa <exp+0x56>
    3298:	fe 57       	subi	r31, 0x7E	; 126
    329a:	e0 68       	ori	r30, 0x80	; 128
    329c:	44 27       	eor	r20, r20
    329e:	ee 0f       	add	r30, r30
    32a0:	44 1f       	adc	r20, r20
    32a2:	fa 95       	dec	r31
    32a4:	e1 f7       	brne	.-8      	; 0x329e <exp+0x4a>
    32a6:	41 95       	neg	r20
    32a8:	55 0b       	sbc	r21, r21
    32aa:	0e 94 8f 19 	call	0x331e	; 0x331e <ldexp>
    32ae:	0f 90       	pop	r0
    32b0:	07 fe       	sbrs	r0, 7
    32b2:	0c 94 83 19 	jmp	0x3306	; 0x3306 <inverse>
    32b6:	08 95       	ret

000032b8 <__fp_powser>:
    32b8:	df 93       	push	r29
    32ba:	cf 93       	push	r28
    32bc:	1f 93       	push	r17
    32be:	0f 93       	push	r16
    32c0:	ff 92       	push	r15
    32c2:	ef 92       	push	r14
    32c4:	df 92       	push	r13
    32c6:	7b 01       	movw	r14, r22
    32c8:	8c 01       	movw	r16, r24
    32ca:	68 94       	set
    32cc:	06 c0       	rjmp	.+12     	; 0x32da <__fp_powser+0x22>
    32ce:	da 2e       	mov	r13, r26
    32d0:	ef 01       	movw	r28, r30
    32d2:	0e 94 78 18 	call	0x30f0	; 0x30f0 <__mulsf3x>
    32d6:	fe 01       	movw	r30, r28
    32d8:	e8 94       	clt
    32da:	a5 91       	lpm	r26, Z+
    32dc:	25 91       	lpm	r18, Z+
    32de:	35 91       	lpm	r19, Z+
    32e0:	45 91       	lpm	r20, Z+
    32e2:	55 91       	lpm	r21, Z+
    32e4:	a6 f3       	brts	.-24     	; 0x32ce <__fp_powser+0x16>
    32e6:	ef 01       	movw	r28, r30
    32e8:	0e 94 23 17 	call	0x2e46	; 0x2e46 <__addsf3x>
    32ec:	fe 01       	movw	r30, r28
    32ee:	97 01       	movw	r18, r14
    32f0:	a8 01       	movw	r20, r16
    32f2:	da 94       	dec	r13
    32f4:	69 f7       	brne	.-38     	; 0x32d0 <__fp_powser+0x18>
    32f6:	df 90       	pop	r13
    32f8:	ef 90       	pop	r14
    32fa:	ff 90       	pop	r15
    32fc:	0f 91       	pop	r16
    32fe:	1f 91       	pop	r17
    3300:	cf 91       	pop	r28
    3302:	df 91       	pop	r29
    3304:	08 95       	ret

00003306 <inverse>:
    3306:	9b 01       	movw	r18, r22
    3308:	ac 01       	movw	r20, r24
    330a:	60 e0       	ldi	r22, 0x00	; 0
    330c:	70 e0       	ldi	r23, 0x00	; 0
    330e:	80 e8       	ldi	r24, 0x80	; 128
    3310:	9f e3       	ldi	r25, 0x3F	; 63
    3312:	0c 94 49 1a 	jmp	0x3492	; 0x3492 <__divsf3>
    3316:	0c 94 14 18 	jmp	0x3028	; 0x3028 <__fp_inf>
    331a:	0c 94 bb 1a 	jmp	0x3576	; 0x3576 <__fp_mpack>

0000331e <ldexp>:
    331e:	0e 94 44 18 	call	0x3088	; 0x3088 <__fp_splitA>
    3322:	d8 f3       	brcs	.-10     	; 0x331a <inverse+0x14>
    3324:	99 23       	and	r25, r25
    3326:	c9 f3       	breq	.-14     	; 0x331a <inverse+0x14>
    3328:	94 0f       	add	r25, r20
    332a:	51 1d       	adc	r21, r1
    332c:	a3 f3       	brvs	.-24     	; 0x3316 <inverse+0x10>
    332e:	91 50       	subi	r25, 0x01	; 1
    3330:	50 40       	sbci	r21, 0x00	; 0
    3332:	94 f0       	brlt	.+36     	; 0x3358 <ldexp+0x3a>
    3334:	59 f0       	breq	.+22     	; 0x334c <ldexp+0x2e>
    3336:	88 23       	and	r24, r24
    3338:	32 f0       	brmi	.+12     	; 0x3346 <ldexp+0x28>
    333a:	66 0f       	add	r22, r22
    333c:	77 1f       	adc	r23, r23
    333e:	88 1f       	adc	r24, r24
    3340:	91 50       	subi	r25, 0x01	; 1
    3342:	50 40       	sbci	r21, 0x00	; 0
    3344:	c1 f7       	brne	.-16     	; 0x3336 <ldexp+0x18>
    3346:	9e 3f       	cpi	r25, 0xFE	; 254
    3348:	51 05       	cpc	r21, r1
    334a:	2c f7       	brge	.-54     	; 0x3316 <inverse+0x10>
    334c:	88 0f       	add	r24, r24
    334e:	91 1d       	adc	r25, r1
    3350:	96 95       	lsr	r25
    3352:	87 95       	ror	r24
    3354:	97 f9       	bld	r25, 7
    3356:	08 95       	ret
    3358:	5f 3f       	cpi	r21, 0xFF	; 255
    335a:	ac f0       	brlt	.+42     	; 0x3386 <ldexp+0x68>
    335c:	98 3e       	cpi	r25, 0xE8	; 232
    335e:	9c f0       	brlt	.+38     	; 0x3386 <ldexp+0x68>
    3360:	bb 27       	eor	r27, r27
    3362:	86 95       	lsr	r24
    3364:	77 95       	ror	r23
    3366:	67 95       	ror	r22
    3368:	b7 95       	ror	r27
    336a:	08 f4       	brcc	.+2      	; 0x336e <ldexp+0x50>
    336c:	b1 60       	ori	r27, 0x01	; 1
    336e:	93 95       	inc	r25
    3370:	c1 f7       	brne	.-16     	; 0x3362 <ldexp+0x44>
    3372:	bb 0f       	add	r27, r27
    3374:	58 f7       	brcc	.-42     	; 0x334c <ldexp+0x2e>
    3376:	11 f4       	brne	.+4      	; 0x337c <ldexp+0x5e>
    3378:	60 ff       	sbrs	r22, 0
    337a:	e8 cf       	rjmp	.-48     	; 0x334c <ldexp+0x2e>
    337c:	6f 5f       	subi	r22, 0xFF	; 255
    337e:	7f 4f       	sbci	r23, 0xFF	; 255
    3380:	8f 4f       	sbci	r24, 0xFF	; 255
    3382:	9f 4f       	sbci	r25, 0xFF	; 255
    3384:	e3 cf       	rjmp	.-58     	; 0x334c <ldexp+0x2e>
    3386:	0c 94 5f 18 	jmp	0x30be	; 0x30be <__fp_szero>
    338a:	16 f0       	brts	.+4      	; 0x3390 <ldexp+0x72>
    338c:	0c 94 bb 1a 	jmp	0x3576	; 0x3576 <__fp_mpack>
    3390:	0c 94 1a 18 	jmp	0x3034	; 0x3034 <__fp_nan>
    3394:	68 94       	set
    3396:	0c 94 14 18 	jmp	0x3028	; 0x3028 <__fp_inf>

0000339a <log>:
    339a:	0e 94 44 18 	call	0x3088	; 0x3088 <__fp_splitA>
    339e:	a8 f3       	brcs	.-22     	; 0x338a <ldexp+0x6c>
    33a0:	99 23       	and	r25, r25
    33a2:	c1 f3       	breq	.-16     	; 0x3394 <ldexp+0x76>
    33a4:	ae f3       	brts	.-22     	; 0x3390 <ldexp+0x72>
    33a6:	df 93       	push	r29
    33a8:	cf 93       	push	r28
    33aa:	1f 93       	push	r17
    33ac:	0f 93       	push	r16
    33ae:	ff 92       	push	r15
    33b0:	c9 2f       	mov	r28, r25
    33b2:	dd 27       	eor	r29, r29
    33b4:	88 23       	and	r24, r24
    33b6:	2a f0       	brmi	.+10     	; 0x33c2 <log+0x28>
    33b8:	21 97       	sbiw	r28, 0x01	; 1
    33ba:	66 0f       	add	r22, r22
    33bc:	77 1f       	adc	r23, r23
    33be:	88 1f       	adc	r24, r24
    33c0:	da f7       	brpl	.-10     	; 0x33b8 <log+0x1e>
    33c2:	20 e0       	ldi	r18, 0x00	; 0
    33c4:	30 e0       	ldi	r19, 0x00	; 0
    33c6:	40 e8       	ldi	r20, 0x80	; 128
    33c8:	5f eb       	ldi	r21, 0xBF	; 191
    33ca:	9f e3       	ldi	r25, 0x3F	; 63
    33cc:	88 39       	cpi	r24, 0x98	; 152
    33ce:	20 f0       	brcs	.+8      	; 0x33d8 <log+0x3e>
    33d0:	80 3e       	cpi	r24, 0xE0	; 224
    33d2:	38 f0       	brcs	.+14     	; 0x33e2 <log+0x48>
    33d4:	21 96       	adiw	r28, 0x01	; 1
    33d6:	8f 77       	andi	r24, 0x7F	; 127
    33d8:	0e 94 0c 17 	call	0x2e18	; 0x2e18 <__addsf3>
    33dc:	ee e0       	ldi	r30, 0x0E	; 14
    33de:	f1 e0       	ldi	r31, 0x01	; 1
    33e0:	04 c0       	rjmp	.+8      	; 0x33ea <log+0x50>
    33e2:	0e 94 0c 17 	call	0x2e18	; 0x2e18 <__addsf3>
    33e6:	eb e3       	ldi	r30, 0x3B	; 59
    33e8:	f1 e0       	ldi	r31, 0x01	; 1
    33ea:	0e 94 5c 19 	call	0x32b8	; 0x32b8 <__fp_powser>
    33ee:	8b 01       	movw	r16, r22
    33f0:	be 01       	movw	r22, r28
    33f2:	ec 01       	movw	r28, r24
    33f4:	fb 2e       	mov	r15, r27
    33f6:	6f 57       	subi	r22, 0x7F	; 127
    33f8:	71 09       	sbc	r23, r1
    33fa:	75 95       	asr	r23
    33fc:	77 1f       	adc	r23, r23
    33fe:	88 0b       	sbc	r24, r24
    3400:	99 0b       	sbc	r25, r25
    3402:	0e 94 b5 17 	call	0x2f6a	; 0x2f6a <__floatsisf>
    3406:	28 e1       	ldi	r18, 0x18	; 24
    3408:	32 e7       	ldi	r19, 0x72	; 114
    340a:	41 e3       	ldi	r20, 0x31	; 49
    340c:	5f e3       	ldi	r21, 0x3F	; 63
    340e:	0e 94 78 18 	call	0x30f0	; 0x30f0 <__mulsf3x>
    3412:	af 2d       	mov	r26, r15
    3414:	98 01       	movw	r18, r16
    3416:	ae 01       	movw	r20, r28
    3418:	ff 90       	pop	r15
    341a:	0f 91       	pop	r16
    341c:	1f 91       	pop	r17
    341e:	cf 91       	pop	r28
    3420:	df 91       	pop	r29
    3422:	0e 94 23 17 	call	0x2e46	; 0x2e46 <__addsf3x>
    3426:	0c 94 2b 18 	jmp	0x3056	; 0x3056 <__fp_round>

0000342a <modf>:
    342a:	fa 01       	movw	r30, r20
    342c:	dc 01       	movw	r26, r24
    342e:	aa 0f       	add	r26, r26
    3430:	bb 1f       	adc	r27, r27
    3432:	9b 01       	movw	r18, r22
    3434:	ac 01       	movw	r20, r24
    3436:	bf 57       	subi	r27, 0x7F	; 127
    3438:	28 f4       	brcc	.+10     	; 0x3444 <modf+0x1a>
    343a:	22 27       	eor	r18, r18
    343c:	33 27       	eor	r19, r19
    343e:	44 27       	eor	r20, r20
    3440:	50 78       	andi	r21, 0x80	; 128
    3442:	20 c0       	rjmp	.+64     	; 0x3484 <modf+0x5a>
    3444:	b7 51       	subi	r27, 0x17	; 23
    3446:	90 f4       	brcc	.+36     	; 0x346c <modf+0x42>
    3448:	ab 2f       	mov	r26, r27
    344a:	00 24       	eor	r0, r0
    344c:	46 95       	lsr	r20
    344e:	37 95       	ror	r19
    3450:	27 95       	ror	r18
    3452:	01 1c       	adc	r0, r1
    3454:	a3 95       	inc	r26
    3456:	d2 f3       	brmi	.-12     	; 0x344c <modf+0x22>
    3458:	00 20       	and	r0, r0
    345a:	71 f0       	breq	.+28     	; 0x3478 <modf+0x4e>
    345c:	22 0f       	add	r18, r18
    345e:	33 1f       	adc	r19, r19
    3460:	44 1f       	adc	r20, r20
    3462:	b3 95       	inc	r27
    3464:	da f3       	brmi	.-10     	; 0x345c <modf+0x32>
    3466:	0e d0       	rcall	.+28     	; 0x3484 <modf+0x5a>
    3468:	0c 94 0b 17 	jmp	0x2e16	; 0x2e16 <__subsf3>
    346c:	61 30       	cpi	r22, 0x01	; 1
    346e:	71 05       	cpc	r23, r1
    3470:	a0 e8       	ldi	r26, 0x80	; 128
    3472:	8a 07       	cpc	r24, r26
    3474:	b9 46       	sbci	r27, 0x69	; 105
    3476:	30 f4       	brcc	.+12     	; 0x3484 <modf+0x5a>
    3478:	9b 01       	movw	r18, r22
    347a:	ac 01       	movw	r20, r24
    347c:	66 27       	eor	r22, r22
    347e:	77 27       	eor	r23, r23
    3480:	88 27       	eor	r24, r24
    3482:	90 78       	andi	r25, 0x80	; 128
    3484:	30 96       	adiw	r30, 0x00	; 0
    3486:	21 f0       	breq	.+8      	; 0x3490 <modf+0x66>
    3488:	20 83       	st	Z, r18
    348a:	31 83       	std	Z+1, r19	; 0x01
    348c:	42 83       	std	Z+2, r20	; 0x02
    348e:	53 83       	std	Z+3, r21	; 0x03
    3490:	08 95       	ret

00003492 <__divsf3>:
    3492:	0e 94 5d 1a 	call	0x34ba	; 0x34ba <__divsf3x>
    3496:	0c 94 2b 18 	jmp	0x3056	; 0x3056 <__fp_round>
    349a:	0e 94 24 18 	call	0x3048	; 0x3048 <__fp_pscB>
    349e:	58 f0       	brcs	.+22     	; 0x34b6 <__divsf3+0x24>
    34a0:	0e 94 1d 18 	call	0x303a	; 0x303a <__fp_pscA>
    34a4:	40 f0       	brcs	.+16     	; 0x34b6 <__divsf3+0x24>
    34a6:	29 f4       	brne	.+10     	; 0x34b2 <__divsf3+0x20>
    34a8:	5f 3f       	cpi	r21, 0xFF	; 255
    34aa:	29 f0       	breq	.+10     	; 0x34b6 <__divsf3+0x24>
    34ac:	0c 94 14 18 	jmp	0x3028	; 0x3028 <__fp_inf>
    34b0:	51 11       	cpse	r21, r1
    34b2:	0c 94 5f 18 	jmp	0x30be	; 0x30be <__fp_szero>
    34b6:	0c 94 1a 18 	jmp	0x3034	; 0x3034 <__fp_nan>

000034ba <__divsf3x>:
    34ba:	0e 94 3c 18 	call	0x3078	; 0x3078 <__fp_split3>
    34be:	68 f3       	brcs	.-38     	; 0x349a <__divsf3+0x8>

000034c0 <__divsf3_pse>:
    34c0:	99 23       	and	r25, r25
    34c2:	b1 f3       	breq	.-20     	; 0x34b0 <__divsf3+0x1e>
    34c4:	55 23       	and	r21, r21
    34c6:	91 f3       	breq	.-28     	; 0x34ac <__divsf3+0x1a>
    34c8:	95 1b       	sub	r25, r21
    34ca:	55 0b       	sbc	r21, r21
    34cc:	bb 27       	eor	r27, r27
    34ce:	aa 27       	eor	r26, r26
    34d0:	62 17       	cp	r22, r18
    34d2:	73 07       	cpc	r23, r19
    34d4:	84 07       	cpc	r24, r20
    34d6:	38 f0       	brcs	.+14     	; 0x34e6 <__divsf3_pse+0x26>
    34d8:	9f 5f       	subi	r25, 0xFF	; 255
    34da:	5f 4f       	sbci	r21, 0xFF	; 255
    34dc:	22 0f       	add	r18, r18
    34de:	33 1f       	adc	r19, r19
    34e0:	44 1f       	adc	r20, r20
    34e2:	aa 1f       	adc	r26, r26
    34e4:	a9 f3       	breq	.-22     	; 0x34d0 <__divsf3_pse+0x10>
    34e6:	35 d0       	rcall	.+106    	; 0x3552 <__divsf3_pse+0x92>
    34e8:	0e 2e       	mov	r0, r30
    34ea:	3a f0       	brmi	.+14     	; 0x34fa <__divsf3_pse+0x3a>
    34ec:	e0 e8       	ldi	r30, 0x80	; 128
    34ee:	32 d0       	rcall	.+100    	; 0x3554 <__divsf3_pse+0x94>
    34f0:	91 50       	subi	r25, 0x01	; 1
    34f2:	50 40       	sbci	r21, 0x00	; 0
    34f4:	e6 95       	lsr	r30
    34f6:	00 1c       	adc	r0, r0
    34f8:	ca f7       	brpl	.-14     	; 0x34ec <__divsf3_pse+0x2c>
    34fa:	2b d0       	rcall	.+86     	; 0x3552 <__divsf3_pse+0x92>
    34fc:	fe 2f       	mov	r31, r30
    34fe:	29 d0       	rcall	.+82     	; 0x3552 <__divsf3_pse+0x92>
    3500:	66 0f       	add	r22, r22
    3502:	77 1f       	adc	r23, r23
    3504:	88 1f       	adc	r24, r24
    3506:	bb 1f       	adc	r27, r27
    3508:	26 17       	cp	r18, r22
    350a:	37 07       	cpc	r19, r23
    350c:	48 07       	cpc	r20, r24
    350e:	ab 07       	cpc	r26, r27
    3510:	b0 e8       	ldi	r27, 0x80	; 128
    3512:	09 f0       	breq	.+2      	; 0x3516 <__divsf3_pse+0x56>
    3514:	bb 0b       	sbc	r27, r27
    3516:	80 2d       	mov	r24, r0
    3518:	bf 01       	movw	r22, r30
    351a:	ff 27       	eor	r31, r31
    351c:	93 58       	subi	r25, 0x83	; 131
    351e:	5f 4f       	sbci	r21, 0xFF	; 255
    3520:	3a f0       	brmi	.+14     	; 0x3530 <__divsf3_pse+0x70>
    3522:	9e 3f       	cpi	r25, 0xFE	; 254
    3524:	51 05       	cpc	r21, r1
    3526:	78 f0       	brcs	.+30     	; 0x3546 <__divsf3_pse+0x86>
    3528:	0c 94 14 18 	jmp	0x3028	; 0x3028 <__fp_inf>
    352c:	0c 94 5f 18 	jmp	0x30be	; 0x30be <__fp_szero>
    3530:	5f 3f       	cpi	r21, 0xFF	; 255
    3532:	e4 f3       	brlt	.-8      	; 0x352c <__divsf3_pse+0x6c>
    3534:	98 3e       	cpi	r25, 0xE8	; 232
    3536:	d4 f3       	brlt	.-12     	; 0x352c <__divsf3_pse+0x6c>
    3538:	86 95       	lsr	r24
    353a:	77 95       	ror	r23
    353c:	67 95       	ror	r22
    353e:	b7 95       	ror	r27
    3540:	f7 95       	ror	r31
    3542:	9f 5f       	subi	r25, 0xFF	; 255
    3544:	c9 f7       	brne	.-14     	; 0x3538 <__divsf3_pse+0x78>
    3546:	88 0f       	add	r24, r24
    3548:	91 1d       	adc	r25, r1
    354a:	96 95       	lsr	r25
    354c:	87 95       	ror	r24
    354e:	97 f9       	bld	r25, 7
    3550:	08 95       	ret
    3552:	e1 e0       	ldi	r30, 0x01	; 1
    3554:	66 0f       	add	r22, r22
    3556:	77 1f       	adc	r23, r23
    3558:	88 1f       	adc	r24, r24
    355a:	bb 1f       	adc	r27, r27
    355c:	62 17       	cp	r22, r18
    355e:	73 07       	cpc	r23, r19
    3560:	84 07       	cpc	r24, r20
    3562:	ba 07       	cpc	r27, r26
    3564:	20 f0       	brcs	.+8      	; 0x356e <__divsf3_pse+0xae>
    3566:	62 1b       	sub	r22, r18
    3568:	73 0b       	sbc	r23, r19
    356a:	84 0b       	sbc	r24, r20
    356c:	ba 0b       	sbc	r27, r26
    356e:	ee 1f       	adc	r30, r30
    3570:	88 f7       	brcc	.-30     	; 0x3554 <__divsf3_pse+0x94>
    3572:	e0 95       	com	r30
    3574:	08 95       	ret

00003576 <__fp_mpack>:
    3576:	9f 3f       	cpi	r25, 0xFF	; 255
    3578:	31 f0       	breq	.+12     	; 0x3586 <__fp_mpack_finite+0xc>

0000357a <__fp_mpack_finite>:
    357a:	91 50       	subi	r25, 0x01	; 1
    357c:	20 f4       	brcc	.+8      	; 0x3586 <__fp_mpack_finite+0xc>
    357e:	87 95       	ror	r24
    3580:	77 95       	ror	r23
    3582:	67 95       	ror	r22
    3584:	b7 95       	ror	r27
    3586:	88 0f       	add	r24, r24
    3588:	91 1d       	adc	r25, r1
    358a:	96 95       	lsr	r25
    358c:	87 95       	ror	r24
    358e:	97 f9       	bld	r25, 7
    3590:	08 95       	ret

00003592 <__mulsi3>:
    3592:	db 01       	movw	r26, r22
    3594:	8f 93       	push	r24
    3596:	9f 93       	push	r25
    3598:	0e 94 21 1b 	call	0x3642	; 0x3642 <__muluhisi3>
    359c:	bf 91       	pop	r27
    359e:	af 91       	pop	r26
    35a0:	a2 9f       	mul	r26, r18
    35a2:	80 0d       	add	r24, r0
    35a4:	91 1d       	adc	r25, r1
    35a6:	a3 9f       	mul	r26, r19
    35a8:	90 0d       	add	r25, r0
    35aa:	b2 9f       	mul	r27, r18
    35ac:	90 0d       	add	r25, r0
    35ae:	11 24       	eor	r1, r1
    35b0:	08 95       	ret

000035b2 <__divmodhi4>:
    35b2:	97 fb       	bst	r25, 7
    35b4:	07 2e       	mov	r0, r23
    35b6:	16 f4       	brtc	.+4      	; 0x35bc <__divmodhi4+0xa>
    35b8:	00 94       	com	r0
    35ba:	07 d0       	rcall	.+14     	; 0x35ca <__divmodhi4_neg1>
    35bc:	77 fd       	sbrc	r23, 7
    35be:	09 d0       	rcall	.+18     	; 0x35d2 <__divmodhi4_neg2>
    35c0:	0e 94 2c 1b 	call	0x3658	; 0x3658 <__udivmodhi4>
    35c4:	07 fc       	sbrc	r0, 7
    35c6:	05 d0       	rcall	.+10     	; 0x35d2 <__divmodhi4_neg2>
    35c8:	3e f4       	brtc	.+14     	; 0x35d8 <__divmodhi4_exit>

000035ca <__divmodhi4_neg1>:
    35ca:	90 95       	com	r25
    35cc:	81 95       	neg	r24
    35ce:	9f 4f       	sbci	r25, 0xFF	; 255
    35d0:	08 95       	ret

000035d2 <__divmodhi4_neg2>:
    35d2:	70 95       	com	r23
    35d4:	61 95       	neg	r22
    35d6:	7f 4f       	sbci	r23, 0xFF	; 255

000035d8 <__divmodhi4_exit>:
    35d8:	08 95       	ret

000035da <__divmodsi4>:
    35da:	05 2e       	mov	r0, r21
    35dc:	97 fb       	bst	r25, 7
    35de:	1e f4       	brtc	.+6      	; 0x35e6 <__divmodsi4+0xc>
    35e0:	00 94       	com	r0
    35e2:	0e 94 04 1b 	call	0x3608	; 0x3608 <__negsi2>
    35e6:	57 fd       	sbrc	r21, 7
    35e8:	07 d0       	rcall	.+14     	; 0x35f8 <__divmodsi4_neg2>
    35ea:	0e 94 40 1b 	call	0x3680	; 0x3680 <__udivmodsi4>
    35ee:	07 fc       	sbrc	r0, 7
    35f0:	03 d0       	rcall	.+6      	; 0x35f8 <__divmodsi4_neg2>
    35f2:	4e f4       	brtc	.+18     	; 0x3606 <__divmodsi4_exit>
    35f4:	0c 94 04 1b 	jmp	0x3608	; 0x3608 <__negsi2>

000035f8 <__divmodsi4_neg2>:
    35f8:	50 95       	com	r21
    35fa:	40 95       	com	r20
    35fc:	30 95       	com	r19
    35fe:	21 95       	neg	r18
    3600:	3f 4f       	sbci	r19, 0xFF	; 255
    3602:	4f 4f       	sbci	r20, 0xFF	; 255
    3604:	5f 4f       	sbci	r21, 0xFF	; 255

00003606 <__divmodsi4_exit>:
    3606:	08 95       	ret

00003608 <__negsi2>:
    3608:	90 95       	com	r25
    360a:	80 95       	com	r24
    360c:	70 95       	com	r23
    360e:	61 95       	neg	r22
    3610:	7f 4f       	sbci	r23, 0xFF	; 255
    3612:	8f 4f       	sbci	r24, 0xFF	; 255
    3614:	9f 4f       	sbci	r25, 0xFF	; 255
    3616:	08 95       	ret

00003618 <__tablejump2__>:
    3618:	ee 0f       	add	r30, r30
    361a:	ff 1f       	adc	r31, r31
    361c:	05 90       	lpm	r0, Z+
    361e:	f4 91       	lpm	r31, Z
    3620:	e0 2d       	mov	r30, r0
    3622:	09 94       	ijmp

00003624 <__umulhisi3>:
    3624:	a2 9f       	mul	r26, r18
    3626:	b0 01       	movw	r22, r0
    3628:	b3 9f       	mul	r27, r19
    362a:	c0 01       	movw	r24, r0
    362c:	a3 9f       	mul	r26, r19
    362e:	70 0d       	add	r23, r0
    3630:	81 1d       	adc	r24, r1
    3632:	11 24       	eor	r1, r1
    3634:	91 1d       	adc	r25, r1
    3636:	b2 9f       	mul	r27, r18
    3638:	70 0d       	add	r23, r0
    363a:	81 1d       	adc	r24, r1
    363c:	11 24       	eor	r1, r1
    363e:	91 1d       	adc	r25, r1
    3640:	08 95       	ret

00003642 <__muluhisi3>:
    3642:	0e 94 12 1b 	call	0x3624	; 0x3624 <__umulhisi3>
    3646:	a5 9f       	mul	r26, r21
    3648:	90 0d       	add	r25, r0
    364a:	b4 9f       	mul	r27, r20
    364c:	90 0d       	add	r25, r0
    364e:	a4 9f       	mul	r26, r20
    3650:	80 0d       	add	r24, r0
    3652:	91 1d       	adc	r25, r1
    3654:	11 24       	eor	r1, r1
    3656:	08 95       	ret

00003658 <__udivmodhi4>:
    3658:	aa 1b       	sub	r26, r26
    365a:	bb 1b       	sub	r27, r27
    365c:	51 e1       	ldi	r21, 0x11	; 17
    365e:	07 c0       	rjmp	.+14     	; 0x366e <__udivmodhi4_ep>

00003660 <__udivmodhi4_loop>:
    3660:	aa 1f       	adc	r26, r26
    3662:	bb 1f       	adc	r27, r27
    3664:	a6 17       	cp	r26, r22
    3666:	b7 07       	cpc	r27, r23
    3668:	10 f0       	brcs	.+4      	; 0x366e <__udivmodhi4_ep>
    366a:	a6 1b       	sub	r26, r22
    366c:	b7 0b       	sbc	r27, r23

0000366e <__udivmodhi4_ep>:
    366e:	88 1f       	adc	r24, r24
    3670:	99 1f       	adc	r25, r25
    3672:	5a 95       	dec	r21
    3674:	a9 f7       	brne	.-22     	; 0x3660 <__udivmodhi4_loop>
    3676:	80 95       	com	r24
    3678:	90 95       	com	r25
    367a:	bc 01       	movw	r22, r24
    367c:	cd 01       	movw	r24, r26
    367e:	08 95       	ret

00003680 <__udivmodsi4>:
    3680:	a1 e2       	ldi	r26, 0x21	; 33
    3682:	1a 2e       	mov	r1, r26
    3684:	aa 1b       	sub	r26, r26
    3686:	bb 1b       	sub	r27, r27
    3688:	fd 01       	movw	r30, r26
    368a:	0d c0       	rjmp	.+26     	; 0x36a6 <__udivmodsi4_ep>

0000368c <__udivmodsi4_loop>:
    368c:	aa 1f       	adc	r26, r26
    368e:	bb 1f       	adc	r27, r27
    3690:	ee 1f       	adc	r30, r30
    3692:	ff 1f       	adc	r31, r31
    3694:	a2 17       	cp	r26, r18
    3696:	b3 07       	cpc	r27, r19
    3698:	e4 07       	cpc	r30, r20
    369a:	f5 07       	cpc	r31, r21
    369c:	20 f0       	brcs	.+8      	; 0x36a6 <__udivmodsi4_ep>
    369e:	a2 1b       	sub	r26, r18
    36a0:	b3 0b       	sbc	r27, r19
    36a2:	e4 0b       	sbc	r30, r20
    36a4:	f5 0b       	sbc	r31, r21

000036a6 <__udivmodsi4_ep>:
    36a6:	66 1f       	adc	r22, r22
    36a8:	77 1f       	adc	r23, r23
    36aa:	88 1f       	adc	r24, r24
    36ac:	99 1f       	adc	r25, r25
    36ae:	1a 94       	dec	r1
    36b0:	69 f7       	brne	.-38     	; 0x368c <__udivmodsi4_loop>
    36b2:	60 95       	com	r22
    36b4:	70 95       	com	r23
    36b6:	80 95       	com	r24
    36b8:	90 95       	com	r25
    36ba:	9b 01       	movw	r18, r22
    36bc:	ac 01       	movw	r20, r24
    36be:	bd 01       	movw	r22, r26
    36c0:	cf 01       	movw	r24, r30
    36c2:	08 95       	ret

000036c4 <vsnprintf>:
    36c4:	ae e0       	ldi	r26, 0x0E	; 14
    36c6:	b0 e0       	ldi	r27, 0x00	; 0
    36c8:	e8 e6       	ldi	r30, 0x68	; 104
    36ca:	fb e1       	ldi	r31, 0x1B	; 27
    36cc:	0c 94 a4 1e 	jmp	0x3d48	; 0x3d48 <__prologue_saves__+0x1c>
    36d0:	8c 01       	movw	r16, r24
    36d2:	fa 01       	movw	r30, r20
    36d4:	86 e0       	ldi	r24, 0x06	; 6
    36d6:	8c 83       	std	Y+4, r24	; 0x04
    36d8:	1a 83       	std	Y+2, r17	; 0x02
    36da:	09 83       	std	Y+1, r16	; 0x01
    36dc:	77 ff       	sbrs	r23, 7
    36de:	02 c0       	rjmp	.+4      	; 0x36e4 <vsnprintf+0x20>
    36e0:	60 e0       	ldi	r22, 0x00	; 0
    36e2:	70 e8       	ldi	r23, 0x80	; 128
    36e4:	cb 01       	movw	r24, r22
    36e6:	01 97       	sbiw	r24, 0x01	; 1
    36e8:	9e 83       	std	Y+6, r25	; 0x06
    36ea:	8d 83       	std	Y+5, r24	; 0x05
    36ec:	a9 01       	movw	r20, r18
    36ee:	bf 01       	movw	r22, r30
    36f0:	ce 01       	movw	r24, r28
    36f2:	01 96       	adiw	r24, 0x01	; 1
    36f4:	0e 94 8e 1b 	call	0x371c	; 0x371c <vfprintf>
    36f8:	4d 81       	ldd	r20, Y+5	; 0x05
    36fa:	5e 81       	ldd	r21, Y+6	; 0x06
    36fc:	57 fd       	sbrc	r21, 7
    36fe:	0a c0       	rjmp	.+20     	; 0x3714 <vsnprintf+0x50>
    3700:	2f 81       	ldd	r18, Y+7	; 0x07
    3702:	38 85       	ldd	r19, Y+8	; 0x08
    3704:	42 17       	cp	r20, r18
    3706:	53 07       	cpc	r21, r19
    3708:	0c f4       	brge	.+2      	; 0x370c <vsnprintf+0x48>
    370a:	9a 01       	movw	r18, r20
    370c:	f8 01       	movw	r30, r16
    370e:	e2 0f       	add	r30, r18
    3710:	f3 1f       	adc	r31, r19
    3712:	10 82       	st	Z, r1
    3714:	2e 96       	adiw	r28, 0x0e	; 14
    3716:	e4 e0       	ldi	r30, 0x04	; 4
    3718:	0c 94 c0 1e 	jmp	0x3d80	; 0x3d80 <__epilogue_restores__+0x1c>

0000371c <vfprintf>:
    371c:	ab e0       	ldi	r26, 0x0B	; 11
    371e:	b0 e0       	ldi	r27, 0x00	; 0
    3720:	e4 e9       	ldi	r30, 0x94	; 148
    3722:	fb e1       	ldi	r31, 0x1B	; 27
    3724:	0c 94 96 1e 	jmp	0x3d2c	; 0x3d2c <__prologue_saves__>
    3728:	6c 01       	movw	r12, r24
    372a:	7b 01       	movw	r14, r22
    372c:	8a 01       	movw	r16, r20
    372e:	fc 01       	movw	r30, r24
    3730:	17 82       	std	Z+7, r1	; 0x07
    3732:	16 82       	std	Z+6, r1	; 0x06
    3734:	83 81       	ldd	r24, Z+3	; 0x03
    3736:	81 ff       	sbrs	r24, 1
    3738:	cc c1       	rjmp	.+920    	; 0x3ad2 <vfprintf+0x3b6>
    373a:	ce 01       	movw	r24, r28
    373c:	01 96       	adiw	r24, 0x01	; 1
    373e:	3c 01       	movw	r6, r24
    3740:	f6 01       	movw	r30, r12
    3742:	93 81       	ldd	r25, Z+3	; 0x03
    3744:	f7 01       	movw	r30, r14
    3746:	93 fd       	sbrc	r25, 3
    3748:	85 91       	lpm	r24, Z+
    374a:	93 ff       	sbrs	r25, 3
    374c:	81 91       	ld	r24, Z+
    374e:	7f 01       	movw	r14, r30
    3750:	88 23       	and	r24, r24
    3752:	09 f4       	brne	.+2      	; 0x3756 <vfprintf+0x3a>
    3754:	ba c1       	rjmp	.+884    	; 0x3aca <vfprintf+0x3ae>
    3756:	85 32       	cpi	r24, 0x25	; 37
    3758:	39 f4       	brne	.+14     	; 0x3768 <vfprintf+0x4c>
    375a:	93 fd       	sbrc	r25, 3
    375c:	85 91       	lpm	r24, Z+
    375e:	93 ff       	sbrs	r25, 3
    3760:	81 91       	ld	r24, Z+
    3762:	7f 01       	movw	r14, r30
    3764:	85 32       	cpi	r24, 0x25	; 37
    3766:	29 f4       	brne	.+10     	; 0x3772 <vfprintf+0x56>
    3768:	b6 01       	movw	r22, r12
    376a:	90 e0       	ldi	r25, 0x00	; 0
    376c:	0e 94 85 1d 	call	0x3b0a	; 0x3b0a <fputc>
    3770:	e7 cf       	rjmp	.-50     	; 0x3740 <vfprintf+0x24>
    3772:	91 2c       	mov	r9, r1
    3774:	21 2c       	mov	r2, r1
    3776:	31 2c       	mov	r3, r1
    3778:	ff e1       	ldi	r31, 0x1F	; 31
    377a:	f3 15       	cp	r31, r3
    377c:	d8 f0       	brcs	.+54     	; 0x37b4 <vfprintf+0x98>
    377e:	8b 32       	cpi	r24, 0x2B	; 43
    3780:	79 f0       	breq	.+30     	; 0x37a0 <vfprintf+0x84>
    3782:	38 f4       	brcc	.+14     	; 0x3792 <vfprintf+0x76>
    3784:	80 32       	cpi	r24, 0x20	; 32
    3786:	79 f0       	breq	.+30     	; 0x37a6 <vfprintf+0x8a>
    3788:	83 32       	cpi	r24, 0x23	; 35
    378a:	a1 f4       	brne	.+40     	; 0x37b4 <vfprintf+0x98>
    378c:	23 2d       	mov	r18, r3
    378e:	20 61       	ori	r18, 0x10	; 16
    3790:	1d c0       	rjmp	.+58     	; 0x37cc <vfprintf+0xb0>
    3792:	8d 32       	cpi	r24, 0x2D	; 45
    3794:	61 f0       	breq	.+24     	; 0x37ae <vfprintf+0x92>
    3796:	80 33       	cpi	r24, 0x30	; 48
    3798:	69 f4       	brne	.+26     	; 0x37b4 <vfprintf+0x98>
    379a:	23 2d       	mov	r18, r3
    379c:	21 60       	ori	r18, 0x01	; 1
    379e:	16 c0       	rjmp	.+44     	; 0x37cc <vfprintf+0xb0>
    37a0:	83 2d       	mov	r24, r3
    37a2:	82 60       	ori	r24, 0x02	; 2
    37a4:	38 2e       	mov	r3, r24
    37a6:	e3 2d       	mov	r30, r3
    37a8:	e4 60       	ori	r30, 0x04	; 4
    37aa:	3e 2e       	mov	r3, r30
    37ac:	2a c0       	rjmp	.+84     	; 0x3802 <vfprintf+0xe6>
    37ae:	f3 2d       	mov	r31, r3
    37b0:	f8 60       	ori	r31, 0x08	; 8
    37b2:	1d c0       	rjmp	.+58     	; 0x37ee <vfprintf+0xd2>
    37b4:	37 fc       	sbrc	r3, 7
    37b6:	2d c0       	rjmp	.+90     	; 0x3812 <vfprintf+0xf6>
    37b8:	20 ed       	ldi	r18, 0xD0	; 208
    37ba:	28 0f       	add	r18, r24
    37bc:	2a 30       	cpi	r18, 0x0A	; 10
    37be:	40 f0       	brcs	.+16     	; 0x37d0 <vfprintf+0xb4>
    37c0:	8e 32       	cpi	r24, 0x2E	; 46
    37c2:	b9 f4       	brne	.+46     	; 0x37f2 <vfprintf+0xd6>
    37c4:	36 fc       	sbrc	r3, 6
    37c6:	81 c1       	rjmp	.+770    	; 0x3aca <vfprintf+0x3ae>
    37c8:	23 2d       	mov	r18, r3
    37ca:	20 64       	ori	r18, 0x40	; 64
    37cc:	32 2e       	mov	r3, r18
    37ce:	19 c0       	rjmp	.+50     	; 0x3802 <vfprintf+0xe6>
    37d0:	36 fe       	sbrs	r3, 6
    37d2:	06 c0       	rjmp	.+12     	; 0x37e0 <vfprintf+0xc4>
    37d4:	8a e0       	ldi	r24, 0x0A	; 10
    37d6:	98 9e       	mul	r9, r24
    37d8:	20 0d       	add	r18, r0
    37da:	11 24       	eor	r1, r1
    37dc:	92 2e       	mov	r9, r18
    37de:	11 c0       	rjmp	.+34     	; 0x3802 <vfprintf+0xe6>
    37e0:	ea e0       	ldi	r30, 0x0A	; 10
    37e2:	2e 9e       	mul	r2, r30
    37e4:	20 0d       	add	r18, r0
    37e6:	11 24       	eor	r1, r1
    37e8:	22 2e       	mov	r2, r18
    37ea:	f3 2d       	mov	r31, r3
    37ec:	f0 62       	ori	r31, 0x20	; 32
    37ee:	3f 2e       	mov	r3, r31
    37f0:	08 c0       	rjmp	.+16     	; 0x3802 <vfprintf+0xe6>
    37f2:	8c 36       	cpi	r24, 0x6C	; 108
    37f4:	21 f4       	brne	.+8      	; 0x37fe <vfprintf+0xe2>
    37f6:	83 2d       	mov	r24, r3
    37f8:	80 68       	ori	r24, 0x80	; 128
    37fa:	38 2e       	mov	r3, r24
    37fc:	02 c0       	rjmp	.+4      	; 0x3802 <vfprintf+0xe6>
    37fe:	88 36       	cpi	r24, 0x68	; 104
    3800:	41 f4       	brne	.+16     	; 0x3812 <vfprintf+0xf6>
    3802:	f7 01       	movw	r30, r14
    3804:	93 fd       	sbrc	r25, 3
    3806:	85 91       	lpm	r24, Z+
    3808:	93 ff       	sbrs	r25, 3
    380a:	81 91       	ld	r24, Z+
    380c:	7f 01       	movw	r14, r30
    380e:	81 11       	cpse	r24, r1
    3810:	b3 cf       	rjmp	.-154    	; 0x3778 <vfprintf+0x5c>
    3812:	98 2f       	mov	r25, r24
    3814:	9f 7d       	andi	r25, 0xDF	; 223
    3816:	95 54       	subi	r25, 0x45	; 69
    3818:	93 30       	cpi	r25, 0x03	; 3
    381a:	28 f4       	brcc	.+10     	; 0x3826 <vfprintf+0x10a>
    381c:	0c 5f       	subi	r16, 0xFC	; 252
    381e:	1f 4f       	sbci	r17, 0xFF	; 255
    3820:	9f e3       	ldi	r25, 0x3F	; 63
    3822:	99 83       	std	Y+1, r25	; 0x01
    3824:	0d c0       	rjmp	.+26     	; 0x3840 <vfprintf+0x124>
    3826:	83 36       	cpi	r24, 0x63	; 99
    3828:	31 f0       	breq	.+12     	; 0x3836 <vfprintf+0x11a>
    382a:	83 37       	cpi	r24, 0x73	; 115
    382c:	71 f0       	breq	.+28     	; 0x384a <vfprintf+0x12e>
    382e:	83 35       	cpi	r24, 0x53	; 83
    3830:	09 f0       	breq	.+2      	; 0x3834 <vfprintf+0x118>
    3832:	59 c0       	rjmp	.+178    	; 0x38e6 <vfprintf+0x1ca>
    3834:	21 c0       	rjmp	.+66     	; 0x3878 <vfprintf+0x15c>
    3836:	f8 01       	movw	r30, r16
    3838:	80 81       	ld	r24, Z
    383a:	89 83       	std	Y+1, r24	; 0x01
    383c:	0e 5f       	subi	r16, 0xFE	; 254
    383e:	1f 4f       	sbci	r17, 0xFF	; 255
    3840:	88 24       	eor	r8, r8
    3842:	83 94       	inc	r8
    3844:	91 2c       	mov	r9, r1
    3846:	53 01       	movw	r10, r6
    3848:	13 c0       	rjmp	.+38     	; 0x3870 <vfprintf+0x154>
    384a:	28 01       	movw	r4, r16
    384c:	f2 e0       	ldi	r31, 0x02	; 2
    384e:	4f 0e       	add	r4, r31
    3850:	51 1c       	adc	r5, r1
    3852:	f8 01       	movw	r30, r16
    3854:	a0 80       	ld	r10, Z
    3856:	b1 80       	ldd	r11, Z+1	; 0x01
    3858:	36 fe       	sbrs	r3, 6
    385a:	03 c0       	rjmp	.+6      	; 0x3862 <vfprintf+0x146>
    385c:	69 2d       	mov	r22, r9
    385e:	70 e0       	ldi	r23, 0x00	; 0
    3860:	02 c0       	rjmp	.+4      	; 0x3866 <vfprintf+0x14a>
    3862:	6f ef       	ldi	r22, 0xFF	; 255
    3864:	7f ef       	ldi	r23, 0xFF	; 255
    3866:	c5 01       	movw	r24, r10
    3868:	0e 94 7a 1d 	call	0x3af4	; 0x3af4 <strnlen>
    386c:	4c 01       	movw	r8, r24
    386e:	82 01       	movw	r16, r4
    3870:	f3 2d       	mov	r31, r3
    3872:	ff 77       	andi	r31, 0x7F	; 127
    3874:	3f 2e       	mov	r3, r31
    3876:	16 c0       	rjmp	.+44     	; 0x38a4 <vfprintf+0x188>
    3878:	28 01       	movw	r4, r16
    387a:	22 e0       	ldi	r18, 0x02	; 2
    387c:	42 0e       	add	r4, r18
    387e:	51 1c       	adc	r5, r1
    3880:	f8 01       	movw	r30, r16
    3882:	a0 80       	ld	r10, Z
    3884:	b1 80       	ldd	r11, Z+1	; 0x01
    3886:	36 fe       	sbrs	r3, 6
    3888:	03 c0       	rjmp	.+6      	; 0x3890 <vfprintf+0x174>
    388a:	69 2d       	mov	r22, r9
    388c:	70 e0       	ldi	r23, 0x00	; 0
    388e:	02 c0       	rjmp	.+4      	; 0x3894 <vfprintf+0x178>
    3890:	6f ef       	ldi	r22, 0xFF	; 255
    3892:	7f ef       	ldi	r23, 0xFF	; 255
    3894:	c5 01       	movw	r24, r10
    3896:	0e 94 6f 1d 	call	0x3ade	; 0x3ade <strnlen_P>
    389a:	4c 01       	movw	r8, r24
    389c:	f3 2d       	mov	r31, r3
    389e:	f0 68       	ori	r31, 0x80	; 128
    38a0:	3f 2e       	mov	r3, r31
    38a2:	82 01       	movw	r16, r4
    38a4:	33 fc       	sbrc	r3, 3
    38a6:	1b c0       	rjmp	.+54     	; 0x38de <vfprintf+0x1c2>
    38a8:	82 2d       	mov	r24, r2
    38aa:	90 e0       	ldi	r25, 0x00	; 0
    38ac:	88 16       	cp	r8, r24
    38ae:	99 06       	cpc	r9, r25
    38b0:	b0 f4       	brcc	.+44     	; 0x38de <vfprintf+0x1c2>
    38b2:	b6 01       	movw	r22, r12
    38b4:	80 e2       	ldi	r24, 0x20	; 32
    38b6:	90 e0       	ldi	r25, 0x00	; 0
    38b8:	0e 94 85 1d 	call	0x3b0a	; 0x3b0a <fputc>
    38bc:	2a 94       	dec	r2
    38be:	f4 cf       	rjmp	.-24     	; 0x38a8 <vfprintf+0x18c>
    38c0:	f5 01       	movw	r30, r10
    38c2:	37 fc       	sbrc	r3, 7
    38c4:	85 91       	lpm	r24, Z+
    38c6:	37 fe       	sbrs	r3, 7
    38c8:	81 91       	ld	r24, Z+
    38ca:	5f 01       	movw	r10, r30
    38cc:	b6 01       	movw	r22, r12
    38ce:	90 e0       	ldi	r25, 0x00	; 0
    38d0:	0e 94 85 1d 	call	0x3b0a	; 0x3b0a <fputc>
    38d4:	21 10       	cpse	r2, r1
    38d6:	2a 94       	dec	r2
    38d8:	21 e0       	ldi	r18, 0x01	; 1
    38da:	82 1a       	sub	r8, r18
    38dc:	91 08       	sbc	r9, r1
    38de:	81 14       	cp	r8, r1
    38e0:	91 04       	cpc	r9, r1
    38e2:	71 f7       	brne	.-36     	; 0x38c0 <vfprintf+0x1a4>
    38e4:	e8 c0       	rjmp	.+464    	; 0x3ab6 <vfprintf+0x39a>
    38e6:	84 36       	cpi	r24, 0x64	; 100
    38e8:	11 f0       	breq	.+4      	; 0x38ee <vfprintf+0x1d2>
    38ea:	89 36       	cpi	r24, 0x69	; 105
    38ec:	41 f5       	brne	.+80     	; 0x393e <vfprintf+0x222>
    38ee:	f8 01       	movw	r30, r16
    38f0:	37 fe       	sbrs	r3, 7
    38f2:	07 c0       	rjmp	.+14     	; 0x3902 <vfprintf+0x1e6>
    38f4:	60 81       	ld	r22, Z
    38f6:	71 81       	ldd	r23, Z+1	; 0x01
    38f8:	82 81       	ldd	r24, Z+2	; 0x02
    38fa:	93 81       	ldd	r25, Z+3	; 0x03
    38fc:	0c 5f       	subi	r16, 0xFC	; 252
    38fe:	1f 4f       	sbci	r17, 0xFF	; 255
    3900:	08 c0       	rjmp	.+16     	; 0x3912 <vfprintf+0x1f6>
    3902:	60 81       	ld	r22, Z
    3904:	71 81       	ldd	r23, Z+1	; 0x01
    3906:	07 2e       	mov	r0, r23
    3908:	00 0c       	add	r0, r0
    390a:	88 0b       	sbc	r24, r24
    390c:	99 0b       	sbc	r25, r25
    390e:	0e 5f       	subi	r16, 0xFE	; 254
    3910:	1f 4f       	sbci	r17, 0xFF	; 255
    3912:	f3 2d       	mov	r31, r3
    3914:	ff 76       	andi	r31, 0x6F	; 111
    3916:	3f 2e       	mov	r3, r31
    3918:	97 ff       	sbrs	r25, 7
    391a:	09 c0       	rjmp	.+18     	; 0x392e <vfprintf+0x212>
    391c:	90 95       	com	r25
    391e:	80 95       	com	r24
    3920:	70 95       	com	r23
    3922:	61 95       	neg	r22
    3924:	7f 4f       	sbci	r23, 0xFF	; 255
    3926:	8f 4f       	sbci	r24, 0xFF	; 255
    3928:	9f 4f       	sbci	r25, 0xFF	; 255
    392a:	f0 68       	ori	r31, 0x80	; 128
    392c:	3f 2e       	mov	r3, r31
    392e:	2a e0       	ldi	r18, 0x0A	; 10
    3930:	30 e0       	ldi	r19, 0x00	; 0
    3932:	a3 01       	movw	r20, r6
    3934:	0e 94 c1 1d 	call	0x3b82	; 0x3b82 <__ultoa_invert>
    3938:	88 2e       	mov	r8, r24
    393a:	86 18       	sub	r8, r6
    393c:	45 c0       	rjmp	.+138    	; 0x39c8 <vfprintf+0x2ac>
    393e:	85 37       	cpi	r24, 0x75	; 117
    3940:	31 f4       	brne	.+12     	; 0x394e <vfprintf+0x232>
    3942:	23 2d       	mov	r18, r3
    3944:	2f 7e       	andi	r18, 0xEF	; 239
    3946:	b2 2e       	mov	r11, r18
    3948:	2a e0       	ldi	r18, 0x0A	; 10
    394a:	30 e0       	ldi	r19, 0x00	; 0
    394c:	25 c0       	rjmp	.+74     	; 0x3998 <vfprintf+0x27c>
    394e:	93 2d       	mov	r25, r3
    3950:	99 7f       	andi	r25, 0xF9	; 249
    3952:	b9 2e       	mov	r11, r25
    3954:	8f 36       	cpi	r24, 0x6F	; 111
    3956:	c1 f0       	breq	.+48     	; 0x3988 <vfprintf+0x26c>
    3958:	18 f4       	brcc	.+6      	; 0x3960 <vfprintf+0x244>
    395a:	88 35       	cpi	r24, 0x58	; 88
    395c:	79 f0       	breq	.+30     	; 0x397c <vfprintf+0x260>
    395e:	b5 c0       	rjmp	.+362    	; 0x3aca <vfprintf+0x3ae>
    3960:	80 37       	cpi	r24, 0x70	; 112
    3962:	19 f0       	breq	.+6      	; 0x396a <vfprintf+0x24e>
    3964:	88 37       	cpi	r24, 0x78	; 120
    3966:	21 f0       	breq	.+8      	; 0x3970 <vfprintf+0x254>
    3968:	b0 c0       	rjmp	.+352    	; 0x3aca <vfprintf+0x3ae>
    396a:	e9 2f       	mov	r30, r25
    396c:	e0 61       	ori	r30, 0x10	; 16
    396e:	be 2e       	mov	r11, r30
    3970:	b4 fe       	sbrs	r11, 4
    3972:	0d c0       	rjmp	.+26     	; 0x398e <vfprintf+0x272>
    3974:	fb 2d       	mov	r31, r11
    3976:	f4 60       	ori	r31, 0x04	; 4
    3978:	bf 2e       	mov	r11, r31
    397a:	09 c0       	rjmp	.+18     	; 0x398e <vfprintf+0x272>
    397c:	34 fe       	sbrs	r3, 4
    397e:	0a c0       	rjmp	.+20     	; 0x3994 <vfprintf+0x278>
    3980:	29 2f       	mov	r18, r25
    3982:	26 60       	ori	r18, 0x06	; 6
    3984:	b2 2e       	mov	r11, r18
    3986:	06 c0       	rjmp	.+12     	; 0x3994 <vfprintf+0x278>
    3988:	28 e0       	ldi	r18, 0x08	; 8
    398a:	30 e0       	ldi	r19, 0x00	; 0
    398c:	05 c0       	rjmp	.+10     	; 0x3998 <vfprintf+0x27c>
    398e:	20 e1       	ldi	r18, 0x10	; 16
    3990:	30 e0       	ldi	r19, 0x00	; 0
    3992:	02 c0       	rjmp	.+4      	; 0x3998 <vfprintf+0x27c>
    3994:	20 e1       	ldi	r18, 0x10	; 16
    3996:	32 e0       	ldi	r19, 0x02	; 2
    3998:	f8 01       	movw	r30, r16
    399a:	b7 fe       	sbrs	r11, 7
    399c:	07 c0       	rjmp	.+14     	; 0x39ac <vfprintf+0x290>
    399e:	60 81       	ld	r22, Z
    39a0:	71 81       	ldd	r23, Z+1	; 0x01
    39a2:	82 81       	ldd	r24, Z+2	; 0x02
    39a4:	93 81       	ldd	r25, Z+3	; 0x03
    39a6:	0c 5f       	subi	r16, 0xFC	; 252
    39a8:	1f 4f       	sbci	r17, 0xFF	; 255
    39aa:	06 c0       	rjmp	.+12     	; 0x39b8 <vfprintf+0x29c>
    39ac:	60 81       	ld	r22, Z
    39ae:	71 81       	ldd	r23, Z+1	; 0x01
    39b0:	80 e0       	ldi	r24, 0x00	; 0
    39b2:	90 e0       	ldi	r25, 0x00	; 0
    39b4:	0e 5f       	subi	r16, 0xFE	; 254
    39b6:	1f 4f       	sbci	r17, 0xFF	; 255
    39b8:	a3 01       	movw	r20, r6
    39ba:	0e 94 c1 1d 	call	0x3b82	; 0x3b82 <__ultoa_invert>
    39be:	88 2e       	mov	r8, r24
    39c0:	86 18       	sub	r8, r6
    39c2:	fb 2d       	mov	r31, r11
    39c4:	ff 77       	andi	r31, 0x7F	; 127
    39c6:	3f 2e       	mov	r3, r31
    39c8:	36 fe       	sbrs	r3, 6
    39ca:	0d c0       	rjmp	.+26     	; 0x39e6 <vfprintf+0x2ca>
    39cc:	23 2d       	mov	r18, r3
    39ce:	2e 7f       	andi	r18, 0xFE	; 254
    39d0:	a2 2e       	mov	r10, r18
    39d2:	89 14       	cp	r8, r9
    39d4:	58 f4       	brcc	.+22     	; 0x39ec <vfprintf+0x2d0>
    39d6:	34 fe       	sbrs	r3, 4
    39d8:	0b c0       	rjmp	.+22     	; 0x39f0 <vfprintf+0x2d4>
    39da:	32 fc       	sbrc	r3, 2
    39dc:	09 c0       	rjmp	.+18     	; 0x39f0 <vfprintf+0x2d4>
    39de:	83 2d       	mov	r24, r3
    39e0:	8e 7e       	andi	r24, 0xEE	; 238
    39e2:	a8 2e       	mov	r10, r24
    39e4:	05 c0       	rjmp	.+10     	; 0x39f0 <vfprintf+0x2d4>
    39e6:	b8 2c       	mov	r11, r8
    39e8:	a3 2c       	mov	r10, r3
    39ea:	03 c0       	rjmp	.+6      	; 0x39f2 <vfprintf+0x2d6>
    39ec:	b8 2c       	mov	r11, r8
    39ee:	01 c0       	rjmp	.+2      	; 0x39f2 <vfprintf+0x2d6>
    39f0:	b9 2c       	mov	r11, r9
    39f2:	a4 fe       	sbrs	r10, 4
    39f4:	0f c0       	rjmp	.+30     	; 0x3a14 <vfprintf+0x2f8>
    39f6:	fe 01       	movw	r30, r28
    39f8:	e8 0d       	add	r30, r8
    39fa:	f1 1d       	adc	r31, r1
    39fc:	80 81       	ld	r24, Z
    39fe:	80 33       	cpi	r24, 0x30	; 48
    3a00:	21 f4       	brne	.+8      	; 0x3a0a <vfprintf+0x2ee>
    3a02:	9a 2d       	mov	r25, r10
    3a04:	99 7e       	andi	r25, 0xE9	; 233
    3a06:	a9 2e       	mov	r10, r25
    3a08:	09 c0       	rjmp	.+18     	; 0x3a1c <vfprintf+0x300>
    3a0a:	a2 fe       	sbrs	r10, 2
    3a0c:	06 c0       	rjmp	.+12     	; 0x3a1a <vfprintf+0x2fe>
    3a0e:	b3 94       	inc	r11
    3a10:	b3 94       	inc	r11
    3a12:	04 c0       	rjmp	.+8      	; 0x3a1c <vfprintf+0x300>
    3a14:	8a 2d       	mov	r24, r10
    3a16:	86 78       	andi	r24, 0x86	; 134
    3a18:	09 f0       	breq	.+2      	; 0x3a1c <vfprintf+0x300>
    3a1a:	b3 94       	inc	r11
    3a1c:	a3 fc       	sbrc	r10, 3
    3a1e:	11 c0       	rjmp	.+34     	; 0x3a42 <vfprintf+0x326>
    3a20:	a0 fe       	sbrs	r10, 0
    3a22:	06 c0       	rjmp	.+12     	; 0x3a30 <vfprintf+0x314>
    3a24:	b2 14       	cp	r11, r2
    3a26:	88 f4       	brcc	.+34     	; 0x3a4a <vfprintf+0x32e>
    3a28:	28 0c       	add	r2, r8
    3a2a:	92 2c       	mov	r9, r2
    3a2c:	9b 18       	sub	r9, r11
    3a2e:	0e c0       	rjmp	.+28     	; 0x3a4c <vfprintf+0x330>
    3a30:	b2 14       	cp	r11, r2
    3a32:	60 f4       	brcc	.+24     	; 0x3a4c <vfprintf+0x330>
    3a34:	b6 01       	movw	r22, r12
    3a36:	80 e2       	ldi	r24, 0x20	; 32
    3a38:	90 e0       	ldi	r25, 0x00	; 0
    3a3a:	0e 94 85 1d 	call	0x3b0a	; 0x3b0a <fputc>
    3a3e:	b3 94       	inc	r11
    3a40:	f7 cf       	rjmp	.-18     	; 0x3a30 <vfprintf+0x314>
    3a42:	b2 14       	cp	r11, r2
    3a44:	18 f4       	brcc	.+6      	; 0x3a4c <vfprintf+0x330>
    3a46:	2b 18       	sub	r2, r11
    3a48:	02 c0       	rjmp	.+4      	; 0x3a4e <vfprintf+0x332>
    3a4a:	98 2c       	mov	r9, r8
    3a4c:	21 2c       	mov	r2, r1
    3a4e:	a4 fe       	sbrs	r10, 4
    3a50:	10 c0       	rjmp	.+32     	; 0x3a72 <vfprintf+0x356>
    3a52:	b6 01       	movw	r22, r12
    3a54:	80 e3       	ldi	r24, 0x30	; 48
    3a56:	90 e0       	ldi	r25, 0x00	; 0
    3a58:	0e 94 85 1d 	call	0x3b0a	; 0x3b0a <fputc>
    3a5c:	a2 fe       	sbrs	r10, 2
    3a5e:	17 c0       	rjmp	.+46     	; 0x3a8e <vfprintf+0x372>
    3a60:	a1 fc       	sbrc	r10, 1
    3a62:	03 c0       	rjmp	.+6      	; 0x3a6a <vfprintf+0x34e>
    3a64:	88 e7       	ldi	r24, 0x78	; 120
    3a66:	90 e0       	ldi	r25, 0x00	; 0
    3a68:	02 c0       	rjmp	.+4      	; 0x3a6e <vfprintf+0x352>
    3a6a:	88 e5       	ldi	r24, 0x58	; 88
    3a6c:	90 e0       	ldi	r25, 0x00	; 0
    3a6e:	b6 01       	movw	r22, r12
    3a70:	0c c0       	rjmp	.+24     	; 0x3a8a <vfprintf+0x36e>
    3a72:	8a 2d       	mov	r24, r10
    3a74:	86 78       	andi	r24, 0x86	; 134
    3a76:	59 f0       	breq	.+22     	; 0x3a8e <vfprintf+0x372>
    3a78:	a1 fe       	sbrs	r10, 1
    3a7a:	02 c0       	rjmp	.+4      	; 0x3a80 <vfprintf+0x364>
    3a7c:	8b e2       	ldi	r24, 0x2B	; 43
    3a7e:	01 c0       	rjmp	.+2      	; 0x3a82 <vfprintf+0x366>
    3a80:	80 e2       	ldi	r24, 0x20	; 32
    3a82:	a7 fc       	sbrc	r10, 7
    3a84:	8d e2       	ldi	r24, 0x2D	; 45
    3a86:	b6 01       	movw	r22, r12
    3a88:	90 e0       	ldi	r25, 0x00	; 0
    3a8a:	0e 94 85 1d 	call	0x3b0a	; 0x3b0a <fputc>
    3a8e:	89 14       	cp	r8, r9
    3a90:	38 f4       	brcc	.+14     	; 0x3aa0 <vfprintf+0x384>
    3a92:	b6 01       	movw	r22, r12
    3a94:	80 e3       	ldi	r24, 0x30	; 48
    3a96:	90 e0       	ldi	r25, 0x00	; 0
    3a98:	0e 94 85 1d 	call	0x3b0a	; 0x3b0a <fputc>
    3a9c:	9a 94       	dec	r9
    3a9e:	f7 cf       	rjmp	.-18     	; 0x3a8e <vfprintf+0x372>
    3aa0:	8a 94       	dec	r8
    3aa2:	f3 01       	movw	r30, r6
    3aa4:	e8 0d       	add	r30, r8
    3aa6:	f1 1d       	adc	r31, r1
    3aa8:	80 81       	ld	r24, Z
    3aaa:	b6 01       	movw	r22, r12
    3aac:	90 e0       	ldi	r25, 0x00	; 0
    3aae:	0e 94 85 1d 	call	0x3b0a	; 0x3b0a <fputc>
    3ab2:	81 10       	cpse	r8, r1
    3ab4:	f5 cf       	rjmp	.-22     	; 0x3aa0 <vfprintf+0x384>
    3ab6:	22 20       	and	r2, r2
    3ab8:	09 f4       	brne	.+2      	; 0x3abc <vfprintf+0x3a0>
    3aba:	42 ce       	rjmp	.-892    	; 0x3740 <vfprintf+0x24>
    3abc:	b6 01       	movw	r22, r12
    3abe:	80 e2       	ldi	r24, 0x20	; 32
    3ac0:	90 e0       	ldi	r25, 0x00	; 0
    3ac2:	0e 94 85 1d 	call	0x3b0a	; 0x3b0a <fputc>
    3ac6:	2a 94       	dec	r2
    3ac8:	f6 cf       	rjmp	.-20     	; 0x3ab6 <vfprintf+0x39a>
    3aca:	f6 01       	movw	r30, r12
    3acc:	86 81       	ldd	r24, Z+6	; 0x06
    3ace:	97 81       	ldd	r25, Z+7	; 0x07
    3ad0:	02 c0       	rjmp	.+4      	; 0x3ad6 <vfprintf+0x3ba>
    3ad2:	8f ef       	ldi	r24, 0xFF	; 255
    3ad4:	9f ef       	ldi	r25, 0xFF	; 255
    3ad6:	2b 96       	adiw	r28, 0x0b	; 11
    3ad8:	e2 e1       	ldi	r30, 0x12	; 18
    3ada:	0c 94 b2 1e 	jmp	0x3d64	; 0x3d64 <__epilogue_restores__>

00003ade <strnlen_P>:
    3ade:	fc 01       	movw	r30, r24
    3ae0:	05 90       	lpm	r0, Z+
    3ae2:	61 50       	subi	r22, 0x01	; 1
    3ae4:	70 40       	sbci	r23, 0x00	; 0
    3ae6:	01 10       	cpse	r0, r1
    3ae8:	d8 f7       	brcc	.-10     	; 0x3ae0 <strnlen_P+0x2>
    3aea:	80 95       	com	r24
    3aec:	90 95       	com	r25
    3aee:	8e 0f       	add	r24, r30
    3af0:	9f 1f       	adc	r25, r31
    3af2:	08 95       	ret

00003af4 <strnlen>:
    3af4:	fc 01       	movw	r30, r24
    3af6:	61 50       	subi	r22, 0x01	; 1
    3af8:	70 40       	sbci	r23, 0x00	; 0
    3afa:	01 90       	ld	r0, Z+
    3afc:	01 10       	cpse	r0, r1
    3afe:	d8 f7       	brcc	.-10     	; 0x3af6 <strnlen+0x2>
    3b00:	80 95       	com	r24
    3b02:	90 95       	com	r25
    3b04:	8e 0f       	add	r24, r30
    3b06:	9f 1f       	adc	r25, r31
    3b08:	08 95       	ret

00003b0a <fputc>:
    3b0a:	0f 93       	push	r16
    3b0c:	1f 93       	push	r17
    3b0e:	cf 93       	push	r28
    3b10:	df 93       	push	r29
    3b12:	fb 01       	movw	r30, r22
    3b14:	23 81       	ldd	r18, Z+3	; 0x03
    3b16:	21 fd       	sbrc	r18, 1
    3b18:	03 c0       	rjmp	.+6      	; 0x3b20 <fputc+0x16>
    3b1a:	8f ef       	ldi	r24, 0xFF	; 255
    3b1c:	9f ef       	ldi	r25, 0xFF	; 255
    3b1e:	2c c0       	rjmp	.+88     	; 0x3b78 <fputc+0x6e>
    3b20:	22 ff       	sbrs	r18, 2
    3b22:	16 c0       	rjmp	.+44     	; 0x3b50 <fputc+0x46>
    3b24:	46 81       	ldd	r20, Z+6	; 0x06
    3b26:	57 81       	ldd	r21, Z+7	; 0x07
    3b28:	24 81       	ldd	r18, Z+4	; 0x04
    3b2a:	35 81       	ldd	r19, Z+5	; 0x05
    3b2c:	42 17       	cp	r20, r18
    3b2e:	53 07       	cpc	r21, r19
    3b30:	44 f4       	brge	.+16     	; 0x3b42 <fputc+0x38>
    3b32:	a0 81       	ld	r26, Z
    3b34:	b1 81       	ldd	r27, Z+1	; 0x01
    3b36:	9d 01       	movw	r18, r26
    3b38:	2f 5f       	subi	r18, 0xFF	; 255
    3b3a:	3f 4f       	sbci	r19, 0xFF	; 255
    3b3c:	31 83       	std	Z+1, r19	; 0x01
    3b3e:	20 83       	st	Z, r18
    3b40:	8c 93       	st	X, r24
    3b42:	26 81       	ldd	r18, Z+6	; 0x06
    3b44:	37 81       	ldd	r19, Z+7	; 0x07
    3b46:	2f 5f       	subi	r18, 0xFF	; 255
    3b48:	3f 4f       	sbci	r19, 0xFF	; 255
    3b4a:	37 83       	std	Z+7, r19	; 0x07
    3b4c:	26 83       	std	Z+6, r18	; 0x06
    3b4e:	14 c0       	rjmp	.+40     	; 0x3b78 <fputc+0x6e>
    3b50:	8b 01       	movw	r16, r22
    3b52:	ec 01       	movw	r28, r24
    3b54:	fb 01       	movw	r30, r22
    3b56:	00 84       	ldd	r0, Z+8	; 0x08
    3b58:	f1 85       	ldd	r31, Z+9	; 0x09
    3b5a:	e0 2d       	mov	r30, r0
    3b5c:	09 95       	icall
    3b5e:	89 2b       	or	r24, r25
    3b60:	e1 f6       	brne	.-72     	; 0x3b1a <fputc+0x10>
    3b62:	d8 01       	movw	r26, r16
    3b64:	16 96       	adiw	r26, 0x06	; 6
    3b66:	8d 91       	ld	r24, X+
    3b68:	9c 91       	ld	r25, X
    3b6a:	17 97       	sbiw	r26, 0x07	; 7
    3b6c:	01 96       	adiw	r24, 0x01	; 1
    3b6e:	17 96       	adiw	r26, 0x07	; 7
    3b70:	9c 93       	st	X, r25
    3b72:	8e 93       	st	-X, r24
    3b74:	16 97       	sbiw	r26, 0x06	; 6
    3b76:	ce 01       	movw	r24, r28
    3b78:	df 91       	pop	r29
    3b7a:	cf 91       	pop	r28
    3b7c:	1f 91       	pop	r17
    3b7e:	0f 91       	pop	r16
    3b80:	08 95       	ret

00003b82 <__ultoa_invert>:
    3b82:	fa 01       	movw	r30, r20
    3b84:	aa 27       	eor	r26, r26
    3b86:	28 30       	cpi	r18, 0x08	; 8
    3b88:	51 f1       	breq	.+84     	; 0x3bde <__ultoa_invert+0x5c>
    3b8a:	20 31       	cpi	r18, 0x10	; 16
    3b8c:	81 f1       	breq	.+96     	; 0x3bee <__ultoa_invert+0x6c>
    3b8e:	e8 94       	clt
    3b90:	6f 93       	push	r22
    3b92:	6e 7f       	andi	r22, 0xFE	; 254
    3b94:	6e 5f       	subi	r22, 0xFE	; 254
    3b96:	7f 4f       	sbci	r23, 0xFF	; 255
    3b98:	8f 4f       	sbci	r24, 0xFF	; 255
    3b9a:	9f 4f       	sbci	r25, 0xFF	; 255
    3b9c:	af 4f       	sbci	r26, 0xFF	; 255
    3b9e:	b1 e0       	ldi	r27, 0x01	; 1
    3ba0:	3e d0       	rcall	.+124    	; 0x3c1e <__ultoa_invert+0x9c>
    3ba2:	b4 e0       	ldi	r27, 0x04	; 4
    3ba4:	3c d0       	rcall	.+120    	; 0x3c1e <__ultoa_invert+0x9c>
    3ba6:	67 0f       	add	r22, r23
    3ba8:	78 1f       	adc	r23, r24
    3baa:	89 1f       	adc	r24, r25
    3bac:	9a 1f       	adc	r25, r26
    3bae:	a1 1d       	adc	r26, r1
    3bb0:	68 0f       	add	r22, r24
    3bb2:	79 1f       	adc	r23, r25
    3bb4:	8a 1f       	adc	r24, r26
    3bb6:	91 1d       	adc	r25, r1
    3bb8:	a1 1d       	adc	r26, r1
    3bba:	6a 0f       	add	r22, r26
    3bbc:	71 1d       	adc	r23, r1
    3bbe:	81 1d       	adc	r24, r1
    3bc0:	91 1d       	adc	r25, r1
    3bc2:	a1 1d       	adc	r26, r1
    3bc4:	20 d0       	rcall	.+64     	; 0x3c06 <__ultoa_invert+0x84>
    3bc6:	09 f4       	brne	.+2      	; 0x3bca <__ultoa_invert+0x48>
    3bc8:	68 94       	set
    3bca:	3f 91       	pop	r19
    3bcc:	2a e0       	ldi	r18, 0x0A	; 10
    3bce:	26 9f       	mul	r18, r22
    3bd0:	11 24       	eor	r1, r1
    3bd2:	30 19       	sub	r19, r0
    3bd4:	30 5d       	subi	r19, 0xD0	; 208
    3bd6:	31 93       	st	Z+, r19
    3bd8:	de f6       	brtc	.-74     	; 0x3b90 <__ultoa_invert+0xe>
    3bda:	cf 01       	movw	r24, r30
    3bdc:	08 95       	ret
    3bde:	46 2f       	mov	r20, r22
    3be0:	47 70       	andi	r20, 0x07	; 7
    3be2:	40 5d       	subi	r20, 0xD0	; 208
    3be4:	41 93       	st	Z+, r20
    3be6:	b3 e0       	ldi	r27, 0x03	; 3
    3be8:	0f d0       	rcall	.+30     	; 0x3c08 <__ultoa_invert+0x86>
    3bea:	c9 f7       	brne	.-14     	; 0x3bde <__ultoa_invert+0x5c>
    3bec:	f6 cf       	rjmp	.-20     	; 0x3bda <__ultoa_invert+0x58>
    3bee:	46 2f       	mov	r20, r22
    3bf0:	4f 70       	andi	r20, 0x0F	; 15
    3bf2:	40 5d       	subi	r20, 0xD0	; 208
    3bf4:	4a 33       	cpi	r20, 0x3A	; 58
    3bf6:	18 f0       	brcs	.+6      	; 0x3bfe <__ultoa_invert+0x7c>
    3bf8:	49 5d       	subi	r20, 0xD9	; 217
    3bfa:	31 fd       	sbrc	r19, 1
    3bfc:	40 52       	subi	r20, 0x20	; 32
    3bfe:	41 93       	st	Z+, r20
    3c00:	02 d0       	rcall	.+4      	; 0x3c06 <__ultoa_invert+0x84>
    3c02:	a9 f7       	brne	.-22     	; 0x3bee <__ultoa_invert+0x6c>
    3c04:	ea cf       	rjmp	.-44     	; 0x3bda <__ultoa_invert+0x58>
    3c06:	b4 e0       	ldi	r27, 0x04	; 4
    3c08:	a6 95       	lsr	r26
    3c0a:	97 95       	ror	r25
    3c0c:	87 95       	ror	r24
    3c0e:	77 95       	ror	r23
    3c10:	67 95       	ror	r22
    3c12:	ba 95       	dec	r27
    3c14:	c9 f7       	brne	.-14     	; 0x3c08 <__ultoa_invert+0x86>
    3c16:	00 97       	sbiw	r24, 0x00	; 0
    3c18:	61 05       	cpc	r22, r1
    3c1a:	71 05       	cpc	r23, r1
    3c1c:	08 95       	ret
    3c1e:	9b 01       	movw	r18, r22
    3c20:	ac 01       	movw	r20, r24
    3c22:	0a 2e       	mov	r0, r26
    3c24:	06 94       	lsr	r0
    3c26:	57 95       	ror	r21
    3c28:	47 95       	ror	r20
    3c2a:	37 95       	ror	r19
    3c2c:	27 95       	ror	r18
    3c2e:	ba 95       	dec	r27
    3c30:	c9 f7       	brne	.-14     	; 0x3c24 <__ultoa_invert+0xa2>
    3c32:	62 0f       	add	r22, r18
    3c34:	73 1f       	adc	r23, r19
    3c36:	84 1f       	adc	r24, r20
    3c38:	95 1f       	adc	r25, r21
    3c3a:	a0 1d       	adc	r26, r0
    3c3c:	08 95       	ret

00003c3e <eeprom_read_block>:
    3c3e:	dc 01       	movw	r26, r24
    3c40:	cb 01       	movw	r24, r22

00003c42 <eeprom_read_blraw>:
    3c42:	fc 01       	movw	r30, r24
    3c44:	f9 99       	sbic	0x1f, 1	; 31
    3c46:	fe cf       	rjmp	.-4      	; 0x3c44 <eeprom_read_blraw+0x2>
    3c48:	06 c0       	rjmp	.+12     	; 0x3c56 <eeprom_read_blraw+0x14>
    3c4a:	f2 bd       	out	0x22, r31	; 34
    3c4c:	e1 bd       	out	0x21, r30	; 33
    3c4e:	f8 9a       	sbi	0x1f, 0	; 31
    3c50:	31 96       	adiw	r30, 0x01	; 1
    3c52:	00 b4       	in	r0, 0x20	; 32
    3c54:	0d 92       	st	X+, r0
    3c56:	41 50       	subi	r20, 0x01	; 1
    3c58:	50 40       	sbci	r21, 0x00	; 0
    3c5a:	b8 f7       	brcc	.-18     	; 0x3c4a <eeprom_read_blraw+0x8>
    3c5c:	08 95       	ret

00003c5e <eeprom_read_byte>:
    3c5e:	f9 99       	sbic	0x1f, 1	; 31
    3c60:	fe cf       	rjmp	.-4      	; 0x3c5e <eeprom_read_byte>
    3c62:	92 bd       	out	0x22, r25	; 34
    3c64:	81 bd       	out	0x21, r24	; 33
    3c66:	f8 9a       	sbi	0x1f, 0	; 31
    3c68:	99 27       	eor	r25, r25
    3c6a:	80 b5       	in	r24, 0x20	; 32
    3c6c:	08 95       	ret

00003c6e <eeprom_read_word>:
    3c6e:	a8 e1       	ldi	r26, 0x18	; 24
    3c70:	b0 e0       	ldi	r27, 0x00	; 0
    3c72:	42 e0       	ldi	r20, 0x02	; 2
    3c74:	50 e0       	ldi	r21, 0x00	; 0
    3c76:	0c 94 21 1e 	jmp	0x3c42	; 0x3c42 <eeprom_read_blraw>

00003c7a <eeprom_update_block>:
    3c7a:	dc 01       	movw	r26, r24
    3c7c:	a4 0f       	add	r26, r20
    3c7e:	b5 1f       	adc	r27, r21
    3c80:	41 50       	subi	r20, 0x01	; 1
    3c82:	50 40       	sbci	r21, 0x00	; 0
    3c84:	48 f0       	brcs	.+18     	; 0x3c98 <eeprom_update_block+0x1e>
    3c86:	cb 01       	movw	r24, r22
    3c88:	84 0f       	add	r24, r20
    3c8a:	95 1f       	adc	r25, r21
    3c8c:	2e 91       	ld	r18, -X
    3c8e:	0e 94 4e 1e 	call	0x3c9c	; 0x3c9c <eeprom_update_r18>
    3c92:	41 50       	subi	r20, 0x01	; 1
    3c94:	50 40       	sbci	r21, 0x00	; 0
    3c96:	d0 f7       	brcc	.-12     	; 0x3c8c <eeprom_update_block+0x12>
    3c98:	08 95       	ret

00003c9a <eeprom_update_byte>:
    3c9a:	26 2f       	mov	r18, r22

00003c9c <eeprom_update_r18>:
    3c9c:	f9 99       	sbic	0x1f, 1	; 31
    3c9e:	fe cf       	rjmp	.-4      	; 0x3c9c <eeprom_update_r18>
    3ca0:	92 bd       	out	0x22, r25	; 34
    3ca2:	81 bd       	out	0x21, r24	; 33
    3ca4:	f8 9a       	sbi	0x1f, 0	; 31
    3ca6:	01 97       	sbiw	r24, 0x01	; 1
    3ca8:	00 b4       	in	r0, 0x20	; 32
    3caa:	02 16       	cp	r0, r18
    3cac:	39 f0       	breq	.+14     	; 0x3cbc <eeprom_update_r18+0x20>
    3cae:	1f ba       	out	0x1f, r1	; 31
    3cb0:	20 bd       	out	0x20, r18	; 32
    3cb2:	0f b6       	in	r0, 0x3f	; 63
    3cb4:	f8 94       	cli
    3cb6:	fa 9a       	sbi	0x1f, 2	; 31
    3cb8:	f9 9a       	sbi	0x1f, 1	; 31
    3cba:	0f be       	out	0x3f, r0	; 63
    3cbc:	08 95       	ret

00003cbe <eeprom_update_dword>:
    3cbe:	03 96       	adiw	r24, 0x03	; 3
    3cc0:	27 2f       	mov	r18, r23
    3cc2:	0e 94 4e 1e 	call	0x3c9c	; 0x3c9c <eeprom_update_r18>
    3cc6:	0e 94 4d 1e 	call	0x3c9a	; 0x3c9a <eeprom_update_byte>
    3cca:	25 2f       	mov	r18, r21
    3ccc:	0e 94 4e 1e 	call	0x3c9c	; 0x3c9c <eeprom_update_r18>
    3cd0:	24 2f       	mov	r18, r20
    3cd2:	0c 94 4e 1e 	jmp	0x3c9c	; 0x3c9c <eeprom_update_r18>

00003cd6 <eeprom_update_word>:
    3cd6:	01 96       	adiw	r24, 0x01	; 1
    3cd8:	27 2f       	mov	r18, r23
    3cda:	0e 94 4e 1e 	call	0x3c9c	; 0x3c9c <eeprom_update_r18>
    3cde:	0c 94 4d 1e 	jmp	0x3c9a	; 0x3c9a <eeprom_update_byte>

00003ce2 <eeprom_write_block>:
    3ce2:	dc 01       	movw	r26, r24
    3ce4:	cb 01       	movw	r24, r22
    3ce6:	03 c0       	rjmp	.+6      	; 0x3cee <eeprom_write_block+0xc>
    3ce8:	2d 91       	ld	r18, X+
    3cea:	0e 94 7c 1e 	call	0x3cf8	; 0x3cf8 <eeprom_write_r18>
    3cee:	41 50       	subi	r20, 0x01	; 1
    3cf0:	50 40       	sbci	r21, 0x00	; 0
    3cf2:	d0 f7       	brcc	.-12     	; 0x3ce8 <eeprom_write_block+0x6>
    3cf4:	08 95       	ret

00003cf6 <eeprom_write_byte>:
    3cf6:	26 2f       	mov	r18, r22

00003cf8 <eeprom_write_r18>:
    3cf8:	f9 99       	sbic	0x1f, 1	; 31
    3cfa:	fe cf       	rjmp	.-4      	; 0x3cf8 <eeprom_write_r18>
    3cfc:	1f ba       	out	0x1f, r1	; 31
    3cfe:	92 bd       	out	0x22, r25	; 34
    3d00:	81 bd       	out	0x21, r24	; 33
    3d02:	20 bd       	out	0x20, r18	; 32
    3d04:	0f b6       	in	r0, 0x3f	; 63
    3d06:	f8 94       	cli
    3d08:	fa 9a       	sbi	0x1f, 2	; 31
    3d0a:	f9 9a       	sbi	0x1f, 1	; 31
    3d0c:	0f be       	out	0x3f, r0	; 63
    3d0e:	01 96       	adiw	r24, 0x01	; 1
    3d10:	08 95       	ret

00003d12 <eeprom_write_dword>:
    3d12:	24 2f       	mov	r18, r20
    3d14:	0e 94 7c 1e 	call	0x3cf8	; 0x3cf8 <eeprom_write_r18>
    3d18:	25 2f       	mov	r18, r21
    3d1a:	0e 94 7c 1e 	call	0x3cf8	; 0x3cf8 <eeprom_write_r18>
    3d1e:	0c 94 91 1e 	jmp	0x3d22	; 0x3d22 <eeprom_write_word>

00003d22 <eeprom_write_word>:
    3d22:	0e 94 7b 1e 	call	0x3cf6	; 0x3cf6 <eeprom_write_byte>
    3d26:	27 2f       	mov	r18, r23
    3d28:	0c 94 7c 1e 	jmp	0x3cf8	; 0x3cf8 <eeprom_write_r18>

00003d2c <__prologue_saves__>:
    3d2c:	2f 92       	push	r2
    3d2e:	3f 92       	push	r3
    3d30:	4f 92       	push	r4
    3d32:	5f 92       	push	r5
    3d34:	6f 92       	push	r6
    3d36:	7f 92       	push	r7
    3d38:	8f 92       	push	r8
    3d3a:	9f 92       	push	r9
    3d3c:	af 92       	push	r10
    3d3e:	bf 92       	push	r11
    3d40:	cf 92       	push	r12
    3d42:	df 92       	push	r13
    3d44:	ef 92       	push	r14
    3d46:	ff 92       	push	r15
    3d48:	0f 93       	push	r16
    3d4a:	1f 93       	push	r17
    3d4c:	cf 93       	push	r28
    3d4e:	df 93       	push	r29
    3d50:	cd b7       	in	r28, 0x3d	; 61
    3d52:	de b7       	in	r29, 0x3e	; 62
    3d54:	ca 1b       	sub	r28, r26
    3d56:	db 0b       	sbc	r29, r27
    3d58:	0f b6       	in	r0, 0x3f	; 63
    3d5a:	f8 94       	cli
    3d5c:	de bf       	out	0x3e, r29	; 62
    3d5e:	0f be       	out	0x3f, r0	; 63
    3d60:	cd bf       	out	0x3d, r28	; 61
    3d62:	09 94       	ijmp

00003d64 <__epilogue_restores__>:
    3d64:	2a 88       	ldd	r2, Y+18	; 0x12
    3d66:	39 88       	ldd	r3, Y+17	; 0x11
    3d68:	48 88       	ldd	r4, Y+16	; 0x10
    3d6a:	5f 84       	ldd	r5, Y+15	; 0x0f
    3d6c:	6e 84       	ldd	r6, Y+14	; 0x0e
    3d6e:	7d 84       	ldd	r7, Y+13	; 0x0d
    3d70:	8c 84       	ldd	r8, Y+12	; 0x0c
    3d72:	9b 84       	ldd	r9, Y+11	; 0x0b
    3d74:	aa 84       	ldd	r10, Y+10	; 0x0a
    3d76:	b9 84       	ldd	r11, Y+9	; 0x09
    3d78:	c8 84       	ldd	r12, Y+8	; 0x08
    3d7a:	df 80       	ldd	r13, Y+7	; 0x07
    3d7c:	ee 80       	ldd	r14, Y+6	; 0x06
    3d7e:	fd 80       	ldd	r15, Y+5	; 0x05
    3d80:	0c 81       	ldd	r16, Y+4	; 0x04
    3d82:	1b 81       	ldd	r17, Y+3	; 0x03
    3d84:	aa 81       	ldd	r26, Y+2	; 0x02
    3d86:	b9 81       	ldd	r27, Y+1	; 0x01
    3d88:	ce 0f       	add	r28, r30
    3d8a:	d1 1d       	adc	r29, r1
    3d8c:	0f b6       	in	r0, 0x3f	; 63
    3d8e:	f8 94       	cli
    3d90:	de bf       	out	0x3e, r29	; 62
    3d92:	0f be       	out	0x3f, r0	; 63
    3d94:	cd bf       	out	0x3d, r28	; 61
    3d96:	ed 01       	movw	r28, r26
    3d98:	08 95       	ret

00003d9a <_exit>:
    3d9a:	f8 94       	cli

00003d9c <__stop_program>:
    3d9c:	ff cf       	rjmp	.-2      	; 0x3d9c <__stop_program>
